TN:
SF:/home/jgf/git/Empirical/geometry/Angle2D.h
FN:35,_ZN3emp5AngleC2Ev
FNDA:2,_ZN3emp5AngleC2Ev
FNF:1
FNH:1
DA:35,2
LF:1
LH:1
end_of_record
TN:
SF:/home/jgf/git/Empirical/geometry/Body2D.h
FN:49,_ZN3emp12CircleBody2DIidEC2ERKNS_6CircleIdEEPi
FN:56,_ZN3emp12CircleBody2DIidED2Ev
FN:78,_ZNK3emp12CircleBody2DIidE8GetShiftEv
FN:99,_ZN3emp12CircleBody2DIidE8AddShiftERKNS_5PointIdEE
FN:106,_ZN3emp12CircleBody2DIidE9TranslateERKNS_5PointIdEE
FN:112,_ZNK3emp12CircleBody2DIidE8IsLinkedERKS1_
FN:115,_ZNK3emp12CircleBody2DIidE11GetLinkDistERKS1_
FN:119,_ZNK3emp12CircleBody2DIidE17GetTargetLinkDistERKS1_
FN:128,_ZN3emp12CircleBody2DIidE14BuildOffspringENS_5PointIdEE
FNDA:2,_ZN3emp12CircleBody2DIidEC2ERKNS_6CircleIdEEPi
FNDA:2,_ZN3emp12CircleBody2DIidE8AddShiftERKNS_5PointIdEE
FNDA:2,_ZNK3emp12CircleBody2DIidE8GetShiftEv
FNDA:4,_ZNK3emp12CircleBody2DIidE17GetTargetLinkDistERKS1_
FNDA:1,_ZN3emp12CircleBody2DIidE14BuildOffspringENS_5PointIdEE
FNDA:1,_ZN3emp12CircleBody2DIidE9TranslateERKNS_5PointIdEE
FNDA:8,_ZNK3emp12CircleBody2DIidE8IsLinkedERKS1_
FNDA:1,_ZN3emp12CircleBody2DIidED2Ev
FNDA:2,_ZNK3emp12CircleBody2DIidE11GetLinkDistERKS1_
FNF:9
FNH:9
DA:49,2
DA:52,2
DA:54,2
DA:55,2
DA:56,1
DA:58,1
DA:59,1
DA:60,1
DA:62,1
DA:63,1
DA:64,1
DA:78,2
DA:99,2
DA:100,2
DA:101,2
DA:102,2
DA:106,1
DA:107,1
DA:108,1
DA:112,8
DA:113,8
DA:115,2
DA:116,2
DA:117,2
DA:119,4
DA:120,4
DA:121,4
DA:128,1
DA:131,1
DA:132,1
DA:133,0
DA:134,0
DA:137,1
DA:138,1
DA:139,1
DA:142,1
DA:143,1
DA:144,1
DA:145,1
DA:147,1
LF:40
LH:38
end_of_record
TN:
SF:/home/jgf/git/Empirical/geometry/Circle2D.h
FN:13,_ZN3emp6CircleIdED2Ev
FN:13,_ZN3emp6CircleIdEC2ERKS1_
FN:19,_ZN3emp6CircleIdEC2ERKNS_5PointIdEEd
FN:21,_ZN3emp6CircleIdEC2Ed
FN:26,_ZNK3emp6CircleIdE9GetRadiusEv
FN:27,_ZNK3emp6CircleIdE15GetSquareRadiusEv
FN:34,_ZN3emp6CircleIdE9TranslateENS_5PointIdEE
FN:36,_ZNK3emp6CircleIdE8ContainsERKNS_5PointIdEE
FN:39,_ZNK3emp6CircleIdE8ContainsERKS1_
FNDA:2,_ZN3emp6CircleIdEC2Ed
FNDA:5,_ZN3emp6CircleIdED2Ev
FNDA:7,_ZNK3emp6CircleIdE9GetRadiusEv
FNDA:2,_ZN3emp6CircleIdEC2ERKNS_5PointIdEEd
FNDA:2,_ZNK3emp6CircleIdE15GetSquareRadiusEv
FNDA:2,_ZNK3emp6CircleIdE8ContainsERKNS_5PointIdEE
FNDA:1,_ZN3emp6CircleIdE9TranslateENS_5PointIdEE
FNDA:2,_ZNK3emp6CircleIdE8ContainsERKS1_
FNDA:2,_ZN3emp6CircleIdEC2ERKS1_
FNF:9
FNH:9
DA:13,7
DA:19,2
DA:21,2
DA:26,7
DA:27,2
DA:34,1
DA:36,2
DA:37,2
DA:39,2
DA:40,2
DA:41,2
LF:11
LH:11
end_of_record
TN:
SF:/home/jgf/git/Empirical/geometry/Point2D.h
FN:23,_ZN3emp5PointIdEC2Ev
FN:24,_ZN3emp5PointIdEC2ERKS1_
FN:25,_ZN3emp5PointIdEC2Edd
FN:26,_ZN3emp5PointIdEC2ERKS1_d
FN:31,_ZN3emp5PointIdED2Ev
FN:34,_ZNK3emp5PointIdEeqERKS1_
FN:35,_ZNK3emp5PointIdEneERKS1_
FN:37,_ZNK3emp5PointIdE4GetXEv
FN:38,_ZNK3emp5PointIdE4GetYEv
FN:39,_ZN3emp5PointIdE4SetXEd
FN:40,_ZN3emp5PointIdE4SetYEd
FN:41,_ZN3emp5PointIdE3SetEdd
FN:44,_ZNK3emp5PointIdE9MagnitudeEv
FN:45,_ZN3emp5PointIdE8AtOriginEv
FN:46,_ZN3emp5PointIdE7NonZeroEv
FN:49,_ZNK3emp5PointIdE11GetMidpointERKS1_
FN:50,_ZNK3emp5PointIdE8GetRot90Ev
FN:51,_ZNK3emp5PointIdE9GetRot180Ev
FN:52,_ZNK3emp5PointIdE9GetRot270Ev
FN:54,_ZNK3emp5PointIdEplERKS1_
FN:62,_ZNK3emp5PointIdE3AbsEv
FN:72,_ZN3emp5PointIdEpLERKS1_
FN:85,_ZNK3emp5PointIdE14SquareDistanceERKS1_
FN:91,_ZNK3emp5PointIdE8DistanceERKS1_
FNDA:2,_ZNK3emp5PointIdE3AbsEv
FNDA:1,_ZNK3emp5PointIdEplERKS1_
FNDA:8,_ZN3emp5PointIdEC2ERKS1_
FNDA:42,_ZN3emp5PointIdED2Ev
FNDA:1,_ZN3emp5PointIdE4SetXEd
FNDA:6,_ZNK3emp5PointIdEeqERKS1_
FNDA:1,_ZN3emp5PointIdE4SetYEd
FNDA:4,_ZN3emp5PointIdE8AtOriginEv
FNDA:3,_ZN3emp5PointIdE3SetEdd
FNDA:1,_ZNK3emp5PointIdE4GetXEv
FNDA:1,_ZNK3emp5PointIdE9GetRot270Ev
FNDA:2,_ZNK3emp5PointIdE11GetMidpointERKS1_
FNDA:2,_ZNK3emp5PointIdE8DistanceERKS1_
FNDA:1,_ZNK3emp5PointIdE9GetRot180Ev
FNDA:0,_ZNK3emp5PointIdE4GetYEv
FNDA:1,_ZN3emp5PointIdEC2ERKS1_d
FNDA:1,_ZNK3emp5PointIdEneERKS1_
FNDA:4,_ZNK3emp5PointIdE14SquareDistanceERKS1_
FNDA:19,_ZN3emp5PointIdEC2Ev
FNDA:19,_ZN3emp5PointIdEC2Edd
FNDA:5,_ZN3emp5PointIdEpLERKS1_
FNDA:4,_ZN3emp5PointIdE7NonZeroEv
FNDA:1,_ZNK3emp5PointIdE8GetRot90Ev
FNDA:12,_ZNK3emp5PointIdE9MagnitudeEv
FNF:24
FNH:23
DA:23,19
DA:24,8
DA:25,19
DA:26,1
DA:27,1
DA:28,1
DA:29,1
DA:30,1
DA:31,42
DA:34,6
DA:35,1
DA:37,1
DA:38,0
DA:39,1
DA:40,1
DA:41,3
DA:44,12
DA:45,4
DA:46,4
DA:49,2
DA:50,1
DA:51,1
DA:52,1
DA:54,1
DA:62,2
DA:72,5
DA:85,4
DA:86,4
DA:87,4
DA:88,4
DA:91,2
LF:31
LH:30
end_of_record
TN:
SF:/home/jgf/git/Empirical/scholar/Author.h
FN:19,_ZN3emp6AuthorC2ERKNSt7__cxx1112basic_stringIcSt11char_traitsIcESaIcEEES8_S8_
FN:21,_ZN3emp6AuthorC2ERKNSt7__cxx1112basic_stringIcSt11char_traitsIcESaIcEEES8_
FN:23,_ZN3emp6AuthorC2ERKNSt7__cxx1112basic_stringIcSt11char_traitsIcESaIcEEE
FN:27,_ZN3emp6AuthorD2Ev
FN:30,_ZNK3emp6AuthoreqERKS0_
FN:36,_ZNK3emp6AuthorltERKS0_
FN:41,_ZNK3emp6AuthorgtERKS0_
FN:43,_ZNK3emp6AuthorleERKS0_
FN:46,_ZNK3emp6Author13HasMiddleNameEv
FN:47,_ZNK3emp6Author11HasLastNameEv
FN:52,_ZNK3emp6Author11GetFullNameB5cxx11Ev
FNDA:3,_ZNK3emp6Author11HasLastNameEv
FNDA:7,_ZN3emp6AuthorC2ERKNSt7__cxx1112basic_stringIcSt11char_traitsIcESaIcEEES8_S8_
FNDA:9,_ZN3emp6AuthorD2Ev
FNDA:1,_ZN3emp6AuthorC2ERKNSt7__cxx1112basic_stringIcSt11char_traitsIcESaIcEEES8_
FNDA:1,_ZNK3emp6AuthoreqERKS0_
FNDA:3,_ZNK3emp6Author13HasMiddleNameEv
FNDA:4,_ZNK3emp6AuthorleERKS0_
FNDA:4,_ZNK3emp6Author11GetFullNameB5cxx11Ev
FNDA:14,_ZNK3emp6AuthorltERKS0_
FNDA:9,_ZNK3emp6AuthorgtERKS0_
FNDA:1,_ZN3emp6AuthorC2ERKNSt7__cxx1112basic_stringIcSt11char_traitsIcESaIcEEE
FNF:11
FNH:11
DA:19,7
DA:20,7
DA:21,1
DA:22,1
DA:23,1
DA:24,1
DA:27,9
DA:30,1
DA:31,2
DA:32,2
DA:33,2
DA:36,14
DA:37,14
DA:38,9
DA:39,5
DA:41,9
DA:43,4
DA:46,3
DA:47,3
DA:52,4
DA:53,4
DA:54,4
DA:55,4
DA:56,4
DA:57,4
DA:58,4
LF:26
LH:26
end_of_record
TN:
SF:/home/jgf/git/Empirical/tools/BitMatrix.h
FN:61,_ZN3emp9BitMatrixILi4ELi5EEC2Ev
FN:64,_ZN3emp9BitMatrixILi4ELi5EED2Ev
FN:66,_ZNK3emp9BitMatrixILi4ELi5EE7NumRowsEv
FN:67,_ZNK3emp9BitMatrixILi4ELi5EE7NumColsEv
FN:68,_ZNK3emp9BitMatrixILi4ELi5EE7GetSizeEv
FN:72,_ZN3emp9BitMatrixILi4ELi5EE5GetIDEii
FN:74,_ZNK3emp9BitMatrixILi4ELi5EE3AnyEv
FN:75,_ZNK3emp9BitMatrixILi4ELi5EE4NoneEv
FN:76,_ZNK3emp9BitMatrixILi4ELi5EE3AllEv
FN:78,_ZNK3emp9BitMatrixILi4ELi5EE3GetEii
FN:81,_ZN3emp9BitMatrixILi4ELi5EE3SetEiib
FN:96,_ZNK3emp9BitMatrixILi4ELi5EE9CountOnesEv
FN:101,_ZNK3emp9BitMatrixILi4ELi5EE7FindBitEv
FNDA:1,_ZNK3emp9BitMatrixILi4ELi5EE7NumColsEv
FNDA:2,_ZNK3emp9BitMatrixILi4ELi5EE3AnyEv
FNDA:4,_ZNK3emp9BitMatrixILi4ELi5EE3GetEii
FNDA:1,_ZN3emp9BitMatrixILi4ELi5EE3SetEiib
FNDA:1,_ZNK3emp9BitMatrixILi4ELi5EE7GetSizeEv
FNDA:2,_ZNK3emp9BitMatrixILi4ELi5EE9CountOnesEv
FNDA:2,_ZNK3emp9BitMatrixILi4ELi5EE4NoneEv
FNDA:1,_ZNK3emp9BitMatrixILi4ELi5EE7FindBitEv
FNDA:1,_ZN3emp9BitMatrixILi4ELi5EED2Ev
FNDA:1,_ZN3emp9BitMatrixILi4ELi5EEC2Ev
FNDA:1,_ZNK3emp9BitMatrixILi4ELi5EE7NumRowsEv
FNDA:6,_ZN3emp9BitMatrixILi4ELi5EE5GetIDEii
FNDA:2,_ZNK3emp9BitMatrixILi4ELi5EE3AllEv
FNF:13
FNH:13
DA:61,1
DA:64,1
DA:66,1
DA:67,1
DA:68,1
DA:72,6
DA:74,2
DA:75,2
DA:76,2
DA:78,4
DA:81,1
DA:96,2
DA:101,1
LF:13
LH:13
end_of_record
TN:
SF:/home/jgf/git/Empirical/tools/BitSet.h
FN:110,_ZN3emp6BitSetILi20EE8BitProxyC2ERS1_i
FN:110,_ZN3emp6BitSetILi80EE8BitProxyC2ERS1_i
FN:110,_ZN3emp6BitSetILi100000EE8BitProxyC2ERS1_i
FN:112,_ZN3emp6BitSetILi20EE8BitProxyaSEb
FN:112,_ZN3emp6BitSetILi100000EE8BitProxyaSEb
FN:112,_ZN3emp6BitSetILi80EE8BitProxyaSEb
FN:122,_ZN3emp6BitSetILi100000EE7FieldIDEi
FN:122,_ZN3emp6BitSetILi20EE7FieldIDEi
FN:122,_ZN3emp6BitSetILi80EE7FieldIDEi
FN:126,_ZN3emp6BitSetILi100000EE8FieldPosEi
FN:126,_ZN3emp6BitSetILi80EE8FieldPosEi
FN:126,_ZN3emp6BitSetILi20EE8FieldPosEi
FN:131,_ZN3emp6BitSetILi80EE4CopyEPKj
FN:131,_ZN3emp6BitSetILi100000EE4CopyEPKj
FN:131,_ZN3emp6BitSetILi20EE4CopyEPKj
FN:136,_ZN3emp6BitSetILi80EE9ShiftLeftEi
FN:136,_ZN3emp6BitSetILi100000EE9ShiftLeftEi
FN:166,_ZN3emp6BitSetILi80EE10ShiftRightEi
FN:166,_ZN3emp6BitSetILi100000EE10ShiftRightEi
FN:191,_ZN3emp6BitSetILi10EEC2Ev
FN:191,_ZN3emp6BitSetILi80EEC2Ev
FN:191,_ZN3emp6BitSetILi50EEC2Ev
FN:191,_ZN3emp6BitSetILi100000EEC2Ev
FN:191,_ZN3emp6BitSetILi32EEC2Ev
FN:191,_ZN3emp6BitSetILi64EEC2Ev
FN:191,_ZN3emp6BitSetILi20EEC2Ev
FN:192,_ZN3emp6BitSetILi100000EEC2ERKS1_
FN:192,_ZN3emp6BitSetILi20EEC2ERKS1_
FN:192,_ZN3emp6BitSetILi80EEC2ERKS1_
FN:193,_ZN3emp6BitSetILi80EED2Ev
FN:193,_ZN3emp6BitSetILi10EED2Ev
FN:193,_ZN3emp6BitSetILi32EED2Ev
FN:193,_ZN3emp6BitSetILi100000EED2Ev
FN:193,_ZN3emp6BitSetILi50EED2Ev
FN:193,_ZN3emp6BitSetILi64EED2Ev
FN:193,_ZN3emp6BitSetILi20EED2Ev
FN:202,_ZN3emp6BitSetILi10EE6ImportILi80EEERS1_RKNS0_IXT_EEE
FN:230,_ZNK3emp6BitSetILi20EE3GetEi
FN:237,_ZN3emp6BitSetILi100000EE3SetEib
FN:237,_ZN3emp6BitSetILi80EE3SetEib
FN:237,_ZN3emp6BitSetILi20EE3SetEib
FN:262,_ZNK3emp6BitSetILi80EE7GetUIntEi
FN:262,_ZNK3emp6BitSetILi10EE7GetUIntEi
FN:272,_ZN3emp6BitSetILi80EE12GetUIntAtBitEi
FN:282,_ZN3emp6BitSetILi80EE13GetValueAtBitILi5EEEji
FN:289,_ZNK3emp6BitSetILi20EE3AnyEv
FN:290,_ZNK3emp6BitSetILi20EE4NoneEv
FN:291,_ZNK3emp6BitSetILi20EE3AllEv
FN:294,_ZNK3emp6BitSetILi20EEixEi
FN:295,_ZN3emp6BitSetILi100000EEixEi
FN:295,_ZN3emp6BitSetILi80EEixEi
FN:295,_ZN3emp6BitSetILi20EEixEi
FN:297,_ZN3emp6BitSetILi100000EE5ClearEv
FN:297,_ZN3emp6BitSetILi10EE5ClearEv
FN:297,_ZN3emp6BitSetILi80EE5ClearEv
FN:297,_ZN3emp6BitSetILi50EE5ClearEv
FN:297,_ZN3emp6BitSetILi64EE5ClearEv
FN:297,_ZN3emp6BitSetILi32EE5ClearEv
FN:297,_ZN3emp6BitSetILi20EE5ClearEv
FN:331,_ZNK3emp6BitSetILi100000EE15CountOnes_MixedEv
FN:331,_ZNK3emp6BitSetILi80EE15CountOnes_MixedEv
FN:331,_ZNK3emp6BitSetILi20EE15CountOnes_MixedEv
FN:341,_ZNK3emp6BitSetILi80EE9CountOnesEv
FN:341,_ZNK3emp6BitSetILi100000EE9CountOnesEv
FN:343,_ZNK3emp6BitSetILi20EE7FindBitEv
FN:379,_ZNK3emp6BitSetILi20EE3NOTEv
FN:386,_ZNK3emp6BitSetILi100000EE3ANDERKS1_
FN:392,_ZNK3emp6BitSetILi100000EE2ORERKS1_
FN:433,_ZN3emp6BitSetILi100000EE8AND_SELFERKS1_
FN:438,_ZN3emp6BitSetILi100000EE7OR_SELFERKS1_
FN:467,_ZNK3emp6BitSetILi100000EE5SHIFTEi
FN:467,_ZNK3emp6BitSetILi80EE5SHIFTEi
FN:474,_ZN3emp6BitSetILi80EE10SHIFT_SELFEi
FN:482,_ZNK3emp6BitSetILi20EEcoEv
FN:483,_ZNK3emp6BitSetILi100000EEanERKS1_
FN:484,_ZNK3emp6BitSetILi100000EEorERKS1_
FN:486,_ZNK3emp6BitSetILi100000EElsEi
FN:487,_ZNK3emp6BitSetILi100000EErsEi
FN:487,_ZNK3emp6BitSetILi80EErsEi
FN:488,_ZN3emp6BitSetILi100000EEaNERKS1_
FN:489,_ZN3emp6BitSetILi100000EEoRERKS1_
FN:491,_ZN3emp6BitSetILi80EElSEi
FN:496,_ZNK3emp6BitSetILi20EE3allEv
FN:497,_ZNK3emp6BitSetILi20EE3anyEv
FN:498,_ZNK3emp6BitSetILi20EE4noneEv
FN:499,_ZNK3emp6BitSetILi20EE5countEv
FNDA:2,_ZNK3emp6BitSetILi20EE15CountOnes_MixedEv
FNDA:76,_ZNK3emp6BitSetILi80EErsEi
FNDA:100000,_ZN3emp6BitSetILi100000EE10ShiftRightEi
FNDA:1,_ZN3emp6BitSetILi20EEC2Ev
FNDA:1,_ZN3emp6BitSetILi64EED2Ev
FNDA:100000,_ZN3emp6BitSetILi100000EE8AND_SELFERKS1_
FNDA:3,_ZN3emp6BitSetILi20EED2Ev
FNDA:2,_ZNK3emp6BitSetILi20EE3anyEv
FNDA:2,_ZNK3emp6BitSetILi20EE3AllEv
FNDA:1,_ZN3emp6BitSetILi20EE5ClearEv
FNDA:2,_ZNK3emp6BitSetILi20EE4noneEv
FNDA:4,_ZN3emp6BitSetILi80EE7FieldIDEi
FNDA:76,_ZNK3emp6BitSetILi80EE5SHIFTEi
FNDA:100000,_ZNK3emp6BitSetILi100000EErsEi
FNDA:1,_ZNK3emp6BitSetILi20EE7FindBitEv
FNDA:1,_ZN3emp6BitSetILi64EEC2Ev
FNDA:6,_ZNK3emp6BitSetILi20EE3AnyEv
FNDA:2,_ZNK3emp6BitSetILi20EEcoEv
FNDA:1,_ZN3emp6BitSetILi32EEC2Ev
FNDA:75,_ZNK3emp6BitSetILi80EE15CountOnes_MixedEv
FNDA:1,_ZNK3emp6BitSetILi10EE7GetUIntEi
FNDA:1,_ZN3emp6BitSetILi50EED2Ev
FNDA:2,_ZN3emp6BitSetILi80EE8BitProxyaSEb
FNDA:1,_ZN3emp6BitSetILi20EEixEi
FNDA:2,_ZNK3emp6BitSetILi20EE3NOTEv
FNDA:5,_ZN3emp6BitSetILi20EE7FieldIDEi
FNDA:300004,_ZN3emp6BitSetILi100000EED2Ev
FNDA:100000,_ZN3emp6BitSetILi100000EEaNERKS1_
FNDA:2,_ZNK3emp6BitSetILi20EE5countEv
FNDA:1,_ZN3emp6BitSetILi64EE5ClearEv
FNDA:2,_ZN3emp6BitSetILi100000EEC2Ev
FNDA:1,_ZN3emp6BitSetILi32EE5ClearEv
FNDA:1,_ZN3emp6BitSetILi80EE13GetValueAtBitILi5EEEji
FNDA:2,_ZN3emp6BitSetILi80EEixEi
FNDA:1,_ZN3emp6BitSetILi80EElSEi
FNDA:5,_ZN3emp6BitSetILi20EE8FieldPosEi
FNDA:1,_ZN3emp6BitSetILi10EED2Ev
FNDA:1,_ZN3emp6BitSetILi32EED2Ev
FNDA:2,_ZN3emp6BitSetILi20EE4CopyEPKj
FNDA:4,_ZN3emp6BitSetILi80EE8FieldPosEi
FNDA:1,_ZN3emp6BitSetILi80EE9ShiftLeftEi
FNDA:1,_ZN3emp6BitSetILi50EEC2Ev
FNDA:100000,_ZN3emp6BitSetILi100000EE9ShiftLeftEi
FNDA:4,_ZNK3emp6BitSetILi20EE3GetEi
FNDA:1,_ZN3emp6BitSetILi80EEC2Ev
FNDA:100000,_ZN3emp6BitSetILi100000EE7OR_SELFERKS1_
FNDA:100001,_ZNK3emp6BitSetILi100000EEanERKS1_
FNDA:40000,_ZN3emp6BitSetILi100000EEixEi
FNDA:1,_ZN3emp6BitSetILi50EE5ClearEv
FNDA:100000,_ZNK3emp6BitSetILi100000EE15CountOnes_MixedEv
FNDA:1,_ZN3emp6BitSetILi10EE6ImportILi80EEERS1_RKNS0_IXT_EEE
FNDA:100000,_ZN3emp6BitSetILi100000EEoRERKS1_
FNDA:77,_ZN3emp6BitSetILi80EEC2ERKS1_
FNDA:2,_ZN3emp6BitSetILi20EEC2ERKS1_
FNDA:40000,_ZN3emp6BitSetILi100000EE8BitProxyC2ERS1_i
FNDA:200000,_ZNK3emp6BitSetILi100000EE5SHIFTEi
FNDA:100001,_ZNK3emp6BitSetILi100000EE3ANDERKS1_
FNDA:1,_ZN3emp6BitSetILi80EE10SHIFT_SELFEi
FNDA:78,_ZN3emp6BitSetILi80EED2Ev
FNDA:1,_ZN3emp6BitSetILi10EEC2Ev
FNDA:40000,_ZN3emp6BitSetILi100000EE8BitProxyaSEb
FNDA:75,_ZN3emp6BitSetILi80EE10ShiftRightEi
FNDA:1,_ZN3emp6BitSetILi80EE5ClearEv
FNDA:100000,_ZNK3emp6BitSetILi100000EE9CountOnesEv
FNDA:300002,_ZN3emp6BitSetILi100000EEC2ERKS1_
FNDA:2,_ZNK3emp6BitSetILi20EE3allEv
FNDA:2,_ZN3emp6BitSetILi80EE3SetEib
FNDA:2,_ZN3emp6BitSetILi100000EE5ClearEv
FNDA:68572,_ZN3emp6BitSetILi100000EE7FieldIDEi
FNDA:2,_ZN3emp6BitSetILi80EE12GetUIntAtBitEi
FNDA:2,_ZNK3emp6BitSetILi20EE4NoneEv
FNDA:300002,_ZN3emp6BitSetILi100000EE4CopyEPKj
FNDA:1,_ZN3emp6BitSetILi20EE8BitProxyaSEb
FNDA:1,_ZN3emp6BitSetILi10EE5ClearEv
FNDA:1,_ZNK3emp6BitSetILi100000EEorERKS1_
FNDA:100000,_ZNK3emp6BitSetILi100000EElsEi
FNDA:1,_ZN3emp6BitSetILi20EE3SetEib
FNDA:1,_ZNK3emp6BitSetILi100000EE2ORERKS1_
FNDA:1,_ZNK3emp6BitSetILi80EE7GetUIntEi
FNDA:75,_ZNK3emp6BitSetILi80EE9CountOnesEv
FNDA:68572,_ZN3emp6BitSetILi100000EE8FieldPosEi
FNDA:77,_ZN3emp6BitSetILi80EE4CopyEPKj
FNDA:2,_ZN3emp6BitSetILi80EE8BitProxyC2ERS1_i
FNDA:1,_ZN3emp6BitSetILi20EE8BitProxyC2ERS1_i
FNDA:68572,_ZN3emp6BitSetILi100000EE3SetEib
FNDA:4,_ZNK3emp6BitSetILi20EEixEi
FNF:86
FNH:86
DA:110,40003
DA:112,40003
DA:113,40003
DA:114,40003
DA:122,68581
DA:123,68581
DA:124,68581
DA:126,68581
DA:131,300081
DA:132,300081
DA:133,300081
DA:136,100001
DA:137,100001
DA:138,100001
DA:139,100001
DA:140,100001
DA:143,100001
DA:144,0
DA:145,0
DA:147,0
DA:151,100001
DA:152,312500003
DA:153,312400002
DA:154,312400002
DA:157,100001
DA:161,1
DA:162,100001
DA:166,100075
DA:167,100075
DA:168,100075
DA:169,100075
DA:170,100075
DA:173,100075
DA:174,120
DA:175,76
DA:177,44
DA:181,100075
DA:182,312500166
DA:183,312400093
DA:184,312400093
DA:186,100073
DA:188,100075
DA:191,8
DA:192,300081
DA:193,300089
DA:202,1
DA:205,1
DA:206,1
DA:207,1
DA:230,4
DA:231,4
DA:232,4
DA:233,4
DA:234,4
DA:237,68575
DA:238,68575
DA:239,68575
DA:240,68575
DA:241,68575
DA:243,68575
DA:244,0
DA:245,68575
DA:262,2
DA:263,2
DA:264,2
DA:272,2
DA:273,2
DA:274,2
DA:275,2
DA:276,2
DA:277,0
DA:278,0
DA:282,1
DA:284,1
DA:289,6
DA:290,2
DA:291,2
DA:294,4
DA:295,40003
DA:297,8
DA:331,100077
DA:332,100077
DA:333,312600304
DA:334,312500227
DA:335,312500227
DA:336,312500227
DA:338,100077
DA:341,100075
DA:343,1
DA:344,1
DA:345,1
DA:346,1
DA:379,2
DA:380,2
DA:381,2
DA:382,2
DA:383,2
DA:386,100001
DA:387,100001
DA:388,100001
DA:389,100001
DA:392,1
DA:393,1
DA:394,1
DA:395,1
DA:433,100000
DA:434,100000
DA:435,100000
DA:438,100000
DA:439,100000
DA:440,100000
DA:467,200076
DA:468,200076
DA:469,200076
DA:470,100001
DA:471,200076
DA:474,1
DA:475,1
DA:476,1
DA:477,1
DA:482,2
DA:483,100001
DA:484,1
DA:486,100000
DA:487,100076
DA:488,100000
DA:489,100000
DA:491,1
DA:496,2
DA:497,2
DA:498,2
DA:499,2
LF:132
LH:126
end_of_record
TN:
SF:/home/jgf/git/Empirical/tools/BitVector.h
FN:37,_ZNK3emp9BitVector9LastBitIDEv
FN:38,_ZNK3emp9BitVector9NumFieldsEv
FN:49,_ZN3emp9BitVector8BitProxyC2ERS0_i
FN:51,_ZN3emp9BitVector8BitProxyaSEb
FN:61,_ZN3emp9BitVector7FieldIDEi
FN:65,_ZN3emp9BitVector8FieldPosEi
FN:76,_ZN3emp9BitVector7RawCopyEPKm
FN:82,_ZN3emp9BitVector9ShiftLeftEi
FN:114,_ZN3emp9BitVector10ShiftRightEi
FN:140,_ZN3emp9BitVectorC2Eib
FN:145,_ZN3emp9BitVectorC2ERKS0_
FN:156,_ZN3emp9BitVectorD2Ev
FN:158,_ZN3emp9BitVectoraSERKS0_
FN:176,_ZN3emp9BitVectoraSEOS0_
FN:232,_ZNK3emp9BitVector3GetEi
FN:239,_ZN3emp9BitVector3SetEib
FN:276,_ZN3emp9BitVector12GetUIntAtBitEi
FN:288,_ZN3emp9BitVector13GetValueAtBitILi5EEEmi
FN:305,_ZNK3emp9BitVectorixEi
FN:306,_ZN3emp9BitVectorixEi
FN:308,_ZN3emp9BitVector5ClearEv
FN:312,_ZN3emp9BitVector6SetAllEv
FN:319,_ZNK3emp9BitVector5PrintERSo
FN:348,_ZNK3emp9BitVector15CountOnes_MixedEv
FN:362,_ZNK3emp9BitVector9CountOnesEv
FN:416,_ZNK3emp9BitVector3ANDERKS0_
FN:423,_ZNK3emp9BitVector2ORERKS0_
FN:470,_ZN3emp9BitVector8AND_SELFERKS0_
FN:476,_ZN3emp9BitVector7OR_SELFERKS0_
FN:510,_ZNK3emp9BitVector5SHIFTEi
FN:517,_ZN3emp9BitVector10SHIFT_SELFEi
FN:526,_ZNK3emp9BitVectoranERKS0_
FN:527,_ZNK3emp9BitVectororERKS0_
FN:529,_ZNK3emp9BitVectorlsEi
FN:530,_ZNK3emp9BitVectorrsEi
FN:531,_ZN3emp9BitVectoraNERKS0_
FN:532,_ZN3emp9BitVectoroRERKS0_
FN:534,_ZN3emp9BitVectorlSEi
FN:547,_ZlsRSoRKN3emp9BitVectorE
FNDA:9,_ZN3emp9BitVectorC2Eib
FNDA:100001,_ZNK3emp9BitVector3ANDERKS0_
FNDA:68644,_ZN3emp9BitVector8FieldPosEi
FNDA:40002,_ZN3emp9BitVector8BitProxyaSEb
FNDA:9,_ZN3emp9BitVector5ClearEv
FNDA:300082,_ZN3emp9BitVector7RawCopyEPKm
FNDA:200039,_ZNK3emp9BitVector5SHIFTEi
FNDA:100000,_ZN3emp9BitVectoraNERKS0_
FNDA:40002,_ZN3emp9BitVectorixEi
FNDA:1,_ZNK3emp9BitVectororERKS0_
FNDA:100038,_ZNK3emp9BitVector15CountOnes_MixedEv
FNDA:1,_ZNK3emp9BitVector2ORERKS0_
FNDA:68644,_ZN3emp9BitVector7FieldIDEi
FNDA:0,_ZN3emp9BitVector6SetAllEv
FNDA:1,_ZN3emp9BitVector13GetValueAtBitILi5EEEmi
FNDA:68642,_ZN3emp9BitVector3SetEib
FNDA:100000,_ZN3emp9BitVector8AND_SELFERKS0_
FNDA:300082,_ZN3emp9BitVectorC2ERKS0_
FNDA:100000,_ZNK3emp9BitVectorlsEi
FNDA:0,_ZNK3emp9BitVector5PrintERSo
FNDA:1,_ZN3emp9BitVectoraSEOS0_
FNDA:100038,_ZN3emp9BitVector10ShiftRightEi
FNDA:100038,_ZNK3emp9BitVector9CountOnesEv
FNDA:0,_ZlsRSoRKN3emp9BitVectorE
FNDA:1,_ZN3emp9BitVector10SHIFT_SELFEi
FNDA:40002,_ZN3emp9BitVector8BitProxyC2ERS0_i
FNDA:1200261,_ZNK3emp9BitVector9NumFieldsEv
FNDA:100001,_ZN3emp9BitVector9ShiftLeftEi
FNDA:0,_ZNK3emp9BitVectorixEi
FNDA:100001,_ZNK3emp9BitVectoranERKS0_
FNDA:0,_ZNK3emp9BitVector3GetEi
FNDA:300091,_ZN3emp9BitVectorD2Ev
FNDA:0,_ZN3emp9BitVectoraSERKS0_
FNDA:100039,_ZNK3emp9BitVectorrsEi
FNDA:1,_ZN3emp9BitVectorlSEi
FNDA:100000,_ZN3emp9BitVectoroRERKS0_
FNDA:100001,_ZNK3emp9BitVector9LastBitIDEv
FNDA:2,_ZN3emp9BitVector12GetUIntAtBitEi
FNDA:100000,_ZN3emp9BitVector7OR_SELFERKS0_
FNF:39
FNH:33
DA:37,100001
DA:38,1200261
DA:49,40002
DA:51,40002
DA:52,40002
DA:53,40002
DA:61,68644
DA:62,68644
DA:63,68644
DA:65,68644
DA:66,68644
DA:67,68644
DA:76,300082
DA:77,300082
DA:78,300082
DA:79,300082
DA:82,100001
DA:83,100001
DA:84,100001
DA:85,100001
DA:86,100001
DA:87,100001
DA:90,100001
DA:91,0
DA:92,0
DA:94,0
DA:98,100001
DA:99,156300002
DA:100,156200001
DA:101,156200001
DA:104,100001
DA:108,100001
DA:109,100001
DA:110,100001
DA:114,100038
DA:115,100038
DA:116,100038
DA:117,100038
DA:118,100038
DA:119,100038
DA:122,100038
DA:123,14
DA:124,7
DA:126,7
DA:130,100038
DA:131,156300068
DA:132,156200031
DA:133,156200031
DA:135,100037
DA:137,100038
DA:140,9
DA:141,9
DA:142,9
DA:143,9
DA:144,9
DA:145,300082
DA:146,300082
DA:148,300082
DA:149,300082
DA:151,300082
DA:156,300091
DA:158,0
DA:159,0
DA:160,0
DA:161,0
DA:163,0
DA:164,0
DA:165,0
DA:167,0
DA:171,0
DA:173,0
DA:176,1
DA:177,1
DA:178,1
DA:179,1
DA:180,1
DA:181,1
DA:183,1
DA:232,0
DA:233,0
DA:234,0
DA:235,0
DA:236,0
DA:239,68642
DA:240,68642
DA:241,68642
DA:242,68642
DA:243,68642
DA:245,68642
DA:246,0
DA:247,68642
DA:276,2
DA:279,2
DA:280,2
DA:281,2
DA:282,0
DA:283,0
DA:284,0
DA:288,1
DA:291,1
DA:305,0
DA:306,40002
DA:308,9
DA:309,9
DA:310,9
DA:311,9
DA:312,0
DA:313,0
DA:314,0
DA:315,0
DA:316,0
DA:319,0
DA:320,0
DA:321,0
DA:322,0
DA:324,0
DA:348,100038
DA:350,100038
DA:351,100038
DA:352,100038
DA:353,312700190
DA:354,312600152
DA:355,312600152
DA:356,312600152
DA:357,312600152
DA:359,100038
DA:362,100038
DA:416,100001
DA:417,100001
DA:418,100001
DA:419,100001
DA:420,100001
DA:423,1
DA:424,1
DA:425,1
DA:426,1
DA:427,1
DA:470,100000
DA:471,100000
DA:472,100000
DA:473,100000
DA:476,100000
DA:477,100000
DA:478,100000
DA:479,100000
DA:510,200039
DA:511,200039
DA:512,200039
DA:513,100001
DA:514,200039
DA:517,1
DA:518,1
DA:519,1
DA:520,1
DA:526,100001
DA:527,1
DA:529,100000
DA:530,100039
DA:531,100000
DA:532,100000
DA:534,1
DA:547,0
DA:548,0
DA:549,0
LF:164
LH:128
end_of_record
TN:
SF:/home/jgf/git/Empirical/tools/DynamicStringSet.h
FN:15,_ZN3emp16DynamicStringSetD2Ev
FN:20,_ZN3emp16DynamicStringSetC2Ev
FN:23,_ZNK3emp16DynamicStringSet7GetSizeEv
FN:24,_ZNK3emp16DynamicStringSetixB5cxx11Ei
FN:28,_ZN3emp16DynamicStringSet3strB5cxx11Ev
FN:34,_ZN3emp16DynamicStringSet3SetEiRKSt8functionIFNSt7__cxx1112basic_stringIcSt11char_traitsIcESaIcEEEvEE
FN:39,_ZN3emp16DynamicStringSet3SetEiRKNSt7__cxx1112basic_stringIcSt11char_traitsIcESaIcEEE
FN:40,_ZZN3emp16DynamicStringSet3SetEiRKNSt7__cxx1112basic_stringIcSt11char_traitsIcESaIcEEEENKUlvE_clB5cxx11Ev
FN:40,_ZZN3emp16DynamicStringSet3SetEiRKNSt7__cxx1112basic_stringIcSt11char_traitsIcESaIcEEEENUlvE_C2ERKS9_
FN:40,_ZZN3emp16DynamicStringSet3SetEiRKNSt7__cxx1112basic_stringIcSt11char_traitsIcESaIcEEEENUlvE_C2EOS9_
FN:40,_ZZN3emp16DynamicStringSet3SetEiRKNSt7__cxx1112basic_stringIcSt11char_traitsIcESaIcEEEENUlvE_D2Ev
FN:43,_ZN3emp16DynamicStringSet6AppendERKSt8functionIFNSt7__cxx1112basic_stringIcSt11char_traitsIcESaIcEEEvEE
FN:49,_ZN3emp16DynamicStringSet6AppendERKNSt7__cxx1112basic_stringIcSt11char_traitsIcESaIcEEE
FN:50,_ZZN3emp16DynamicStringSet6AppendERKNSt7__cxx1112basic_stringIcSt11char_traitsIcESaIcEEEENKUlvE_clB5cxx11Ev
FN:50,_ZZN3emp16DynamicStringSet6AppendERKNSt7__cxx1112basic_stringIcSt11char_traitsIcESaIcEEEENUlvE_C2ERKS9_
FN:50,_ZZN3emp16DynamicStringSet6AppendERKNSt7__cxx1112basic_stringIcSt11char_traitsIcESaIcEEEENUlvE_D2Ev
FN:50,_ZZN3emp16DynamicStringSet6AppendERKNSt7__cxx1112basic_stringIcSt11char_traitsIcESaIcEEEENUlvE_C2EOS9_
FN:54,_ZN3emp16DynamicStringSetlsIRA9_KcEERS0_OT_
FN:61,_ZlsRSoRKN3emp16DynamicStringSetE
FNDA:2,_ZZN3emp16DynamicStringSet6AppendERKNSt7__cxx1112basic_stringIcSt11char_traitsIcESaIcEEEENUlvE_C2EOS9_
FNDA:10,_ZNK3emp16DynamicStringSetixB5cxx11Ei
FNDA:1,_ZN3emp16DynamicStringSet3strB5cxx11Ev
FNDA:1,_ZN3emp16DynamicStringSetC2Ev
FNDA:3,_ZNK3emp16DynamicStringSet7GetSizeEv
FNDA:1,_ZN3emp16DynamicStringSetD2Ev
FNDA:1,_ZZN3emp16DynamicStringSet3SetEiRKNSt7__cxx1112basic_stringIcSt11char_traitsIcESaIcEEEENUlvE_C2ERKS9_
FNDA:5,_ZZN3emp16DynamicStringSet6AppendERKNSt7__cxx1112basic_stringIcSt11char_traitsIcESaIcEEEENKUlvE_clB5cxx11Ev
FNDA:5,_ZN3emp16DynamicStringSet6AppendERKSt8functionIFNSt7__cxx1112basic_stringIcSt11char_traitsIcESaIcEEEvEE
FNDA:2,_ZZN3emp16DynamicStringSet3SetEiRKNSt7__cxx1112basic_stringIcSt11char_traitsIcESaIcEEEENKUlvE_clB5cxx11Ev
FNDA:2,_ZN3emp16DynamicStringSet6AppendERKNSt7__cxx1112basic_stringIcSt11char_traitsIcESaIcEEE
FNDA:1,_ZN3emp16DynamicStringSet3SetEiRKNSt7__cxx1112basic_stringIcSt11char_traitsIcESaIcEEE
FNDA:1,_ZlsRSoRKN3emp16DynamicStringSetE
FNDA:7,_ZZN3emp16DynamicStringSet6AppendERKNSt7__cxx1112basic_stringIcSt11char_traitsIcESaIcEEEENUlvE_C2ERKS9_
FNDA:1,_ZN3emp16DynamicStringSet3SetEiRKSt8functionIFNSt7__cxx1112basic_stringIcSt11char_traitsIcESaIcEEEvEE
FNDA:1,_ZN3emp16DynamicStringSetlsIRA9_KcEERS0_OT_
FNDA:3,_ZZN3emp16DynamicStringSet3SetEiRKNSt7__cxx1112basic_stringIcSt11char_traitsIcESaIcEEEENUlvE_D2Ev
FNDA:1,_ZZN3emp16DynamicStringSet3SetEiRKNSt7__cxx1112basic_stringIcSt11char_traitsIcESaIcEEEENUlvE_C2EOS9_
FNDA:11,_ZZN3emp16DynamicStringSet6AppendERKNSt7__cxx1112basic_stringIcSt11char_traitsIcESaIcEEEENUlvE_D2Ev
FNF:19
FNH:19
DA:15,1
DA:20,1
DA:23,3
DA:24,10
DA:28,1
DA:29,2
DA:30,1
DA:31,2
DA:34,1
DA:35,1
DA:36,1
DA:39,1
DA:40,8
DA:43,5
DA:44,5
DA:45,5
DA:49,2
DA:50,27
DA:54,1
DA:61,1
DA:63,3
DA:64,2
DA:66,1
LF:23
LH:23
end_of_record
TN:
SF:/home/jgf/git/Empirical/tools/FunctionSet.h
FN:15,_ZN3emp11FunctionSetIdJdEEC2Ev
FN:16,_ZN3emp11FunctionSetIdJdEED2Ev
FN:20,_ZN3emp11FunctionSetIdJdEE3AddERKSt8functionIFddEE
FN:24,_ZN3emp11FunctionSetIdJdEE3RunEd
FN:35,_ZN3emp11FunctionSetIdJdEE3RunEdSt8functionIFdddEEd
FN:49,_ZN3emp11FunctionSetIdJdEE7FindMaxEdd
FN:50,_ZZN3emp11FunctionSetIdJdEE7FindMaxEddENUlddE_4_FUNEdd
FN:50,_ZZN3emp11FunctionSetIdJdEE7FindMaxEddENKUlddE_clEdd
FN:52,_ZN3emp11FunctionSetIdJdEE7FindMinEdd
FN:53,_ZZN3emp11FunctionSetIdJdEE7FindMinEddENUlddE_4_FUNEdd
FN:53,_ZZN3emp11FunctionSetIdJdEE7FindMinEddENKUlddE_clEdd
FN:55,_ZN3emp11FunctionSetIdJdEE7FindSumEdd
FN:56,_ZZN3emp11FunctionSetIdJdEE7FindSumEddENUlddE_4_FUNEdd
FN:56,_ZZN3emp11FunctionSetIdJdEE7FindSumEddENKUlddE_clEdd
FN:68,_ZN3emp11FunctionSetIvJiiEEC2Ev
FN:69,_ZN3emp11FunctionSetIvJiiEED2Ev
FN:73,_ZN3emp11FunctionSetIvJiiEE3AddERKSt8functionIFviiEE
FN:77,_ZN3emp11FunctionSetIvJiiEE3RunEii
FNDA:5,_ZN3emp11FunctionSetIdJdEE7FindSumEdd
FNDA:4,_ZN3emp11FunctionSetIvJiiEE3AddERKSt8functionIFviiEE
FNDA:1,_ZN3emp11FunctionSetIvJiiEEC2Ev
FNDA:5,_ZN3emp11FunctionSetIdJdEE7FindMaxEdd
FNDA:0,_ZZN3emp11FunctionSetIdJdEE7FindMinEddENUlddE_4_FUNEdd
FNDA:1,_ZN3emp11FunctionSetIvJiiEE3RunEii
FNDA:10,_ZZN3emp11FunctionSetIdJdEE7FindSumEddENKUlddE_clEdd
FNDA:0,_ZZN3emp11FunctionSetIdJdEE7FindMaxEddENUlddE_4_FUNEdd
FNDA:0,_ZZN3emp11FunctionSetIdJdEE7FindSumEddENUlddE_4_FUNEdd
FNDA:3,_ZN3emp11FunctionSetIdJdEE3AddERKSt8functionIFddEE
FNDA:24,_ZN3emp11FunctionSetIdJdEE3RunEd
FNDA:10,_ZZN3emp11FunctionSetIdJdEE7FindMaxEddENKUlddE_clEdd
FNDA:1,_ZN3emp11FunctionSetIdJdEEC2Ev
FNDA:1,_ZN3emp11FunctionSetIvJiiEED2Ev
FNDA:1,_ZN3emp11FunctionSetIdJdEED2Ev
FNDA:5,_ZN3emp11FunctionSetIdJdEE7FindMinEdd
FNDA:20,_ZN3emp11FunctionSetIdJdEE3RunEdSt8functionIFdddEEd
FNDA:10,_ZZN3emp11FunctionSetIdJdEE7FindMinEddENKUlddE_clEdd
FNF:18
FNH:15
DA:15,1
DA:16,1
DA:20,3
DA:21,3
DA:22,3
DA:24,24
DA:25,24
DA:26,24
DA:27,96
DA:28,72
DA:30,24
DA:35,20
DA:37,20
DA:39,20
DA:41,20
DA:42,60
DA:43,40
DA:46,20
DA:49,5
DA:50,15
DA:52,5
DA:53,15
DA:55,5
DA:56,15
DA:68,1
DA:69,1
DA:73,4
DA:74,4
DA:75,4
DA:77,1
DA:78,5
DA:79,4
DA:81,1
LF:33
LH:33
end_of_record
TN:
SF:/home/jgf/git/Empirical/tools/Graph.h
FN:23,_ZN3emp5Graph4NodeC2Ei
FN:24,_ZN3emp5Graph4NodeC2ERKS1_
FN:25,_ZN3emp5Graph4NodeD2Ev
FN:27,_ZN3emp5Graph4NodeaSERKS1_
FN:29,_ZNK3emp5Graph4Node7HasEdgeEi
FN:30,_ZN3emp5Graph4Node7AddEdgeEi
FN:43,_ZN3emp5GraphC2Ei
FN:45,_ZN3emp5GraphD2Ev
FN:47,_ZN3emp5GraphaSERKS0_
FN:49,_ZNK3emp5Graph7GetSizeEv
FN:70,_ZNK3emp5Graph7HasEdgeEii
FN:74,_ZN3emp5Graph7AddEdgeEii
FN:92,_ZN3emp5Graph11AddEdgePairEii
FNDA:2,_ZN3emp5GraphC2Ei
FNDA:2,_ZN3emp5GraphD2Ev
FNDA:0,_ZN3emp5Graph7AddEdgeEii
FNDA:0,_ZNK3emp5Graph7HasEdgeEii
FNDA:2,_ZN3emp5Graph4NodeC2Ei
FNDA:0,_ZNK3emp5Graph4Node7HasEdgeEi
FNDA:34,_ZN3emp5Graph11AddEdgePairEii
FNDA:68,_ZN3emp5Graph4Node7AddEdgeEi
FNDA:42,_ZN3emp5Graph4NodeD2Ev
FNDA:1,_ZNK3emp5Graph7GetSizeEv
FNDA:0,_ZN3emp5GraphaSERKS0_
FNDA:40,_ZN3emp5Graph4NodeC2ERKS1_
FNDA:0,_ZN3emp5Graph4NodeaSERKS1_
FNF:13
FNH:8
DA:23,2
DA:24,40
DA:25,42
DA:27,0
DA:29,0
DA:30,68
DA:43,2
DA:45,2
DA:47,0
DA:49,1
DA:70,0
DA:71,0
DA:72,0
DA:74,0
DA:75,0
DA:76,0
DA:77,0
DA:92,34
DA:93,34
DA:94,34
DA:95,34
DA:96,34
LF:22
LH:12
end_of_record
TN:
SF:/home/jgf/git/Empirical/tools/Ptr.h
FN:24,_ZN3emp7PtrInfoC2Eb
FN:25,_ZN3emp7PtrInfoD2Ev
FN:27,_ZNK3emp7PtrInfo8GetCountEv
FN:28,_ZNK3emp7PtrInfo8IsActiveEv
FN:29,_ZNK3emp7PtrInfo7IsOwnerEv
FN:31,_ZN3emp7PtrInfo3IncEv
FN:32,_ZN3emp7PtrInfo3DecEv
FN:46,_ZN3emp7PtrInfo11MarkDeletedEv
FN:70,_ZN3emp10PtrTrackerIcEC2Ev
FN:70,_ZN3emp10PtrTrackerIiEC2Ev
FN:74,_ZN3emp10PtrTrackerIcED2Ev
FN:74,_ZN3emp10PtrTrackerIiED2Ev
FN:80,_ZN3emp10PtrTrackerIiE3GetEv
FN:80,_ZN3emp10PtrTrackerIcE3GetEv
FN:83,_ZNK3emp10PtrTrackerIiE6HasPtrEPi
FN:83,_ZNK3emp10PtrTrackerIcE6HasPtrEPc
FN:87,_ZNK3emp10PtrTrackerIcE8IsActiveEPc
FN:87,_ZNK3emp10PtrTrackerIiE8IsActiveEPi
FN:92,_ZNK3emp10PtrTrackerIiE7IsOwnerEPi
FN:97,_ZNK3emp10PtrTrackerIiE8GetCountEPi
FN:97,_ZNK3emp10PtrTrackerIcE8GetCountEPc
FN:104,_ZN3emp10PtrTrackerIiE3NewEPi
FN:104,_ZN3emp10PtrTrackerIcE3NewEPc
FN:111,_ZN3emp10PtrTrackerIiE3OldEPi
FN:116,_ZN3emp10PtrTrackerIiE3IncEPi
FN:116,_ZN3emp10PtrTrackerIcE3IncEPc
FN:121,_ZN3emp10PtrTrackerIcE3DecEPc
FN:121,_ZN3emp10PtrTrackerIiE3DecEPi
FN:126,_ZN3emp10PtrTrackerIcE11MarkDeletedEPc
FN:126,_ZN3emp10PtrTrackerIiE11MarkDeletedEPi
FN:147,_ZN3emp3PtrIcE7TrackerEv
FN:147,_ZN3emp3PtrIiE7TrackerEv
FN:150,_ZN3emp3PtrIcEC2Ev
FN:150,_ZN3emp3PtrIiEC2Ev
FN:151,_ZN3emp3PtrIiEC2EPi
FN:152,_ZN3emp3PtrIiEC2ERi
FN:153,_ZN3emp3PtrIiEC2ERKS1_
FN:153,_ZN3emp3PtrIcEC2ERKS1_
FN:154,_ZN3emp3PtrIiED2Ev
FN:158,_ZN3emp3PtrIiE3NewEv
FN:163,_ZN3emp3PtrIcE3NewERKc
FN:168,_ZN3emp3PtrIiE6DeleteEv
FN:168,_ZN3emp3PtrIcE6DeleteEv
FN:174,_ZN3emp3PtrIcEaSERKS1_
FN:181,_ZN3emp3PtrIiEdeEv
FN:193,_ZNK3emp3PtrIcE13DebugGetCountEv
FNDA:4,_ZN3emp10PtrTrackerIiE3NewEPi
FNDA:1,_ZN3emp10PtrTrackerIcE11MarkDeletedEPc
FNDA:36,_ZNK3emp10PtrTrackerIiE6HasPtrEPi
FNDA:1,_ZN3emp3PtrIcEC2Ev
FNDA:1,_ZN3emp10PtrTrackerIcED2Ev
FNDA:0,_ZNK3emp10PtrTrackerIcE8IsActiveEPc
FNDA:10,_ZN3emp3PtrIiEdeEv
FNDA:1,_ZN3emp3PtrIiEC2ERKS1_
FNDA:4,_ZN3emp7PtrInfo11MarkDeletedEv
FNDA:3,_ZN3emp10PtrTrackerIcE3DecEPc
FNDA:13,_ZN3emp7PtrInfo3IncEv
FNDA:1,_ZN3emp3PtrIiEC2EPi
FNDA:14,_ZN3emp10PtrTrackerIiE3GetEv
FNDA:20,_ZNK3emp10PtrTrackerIcE6HasPtrEPc
FNDA:2,_ZN3emp10PtrTrackerIcE3NewEPc
FNDA:4,_ZNK3emp3PtrIcE13DebugGetCountEv
FNDA:3,_ZN3emp10PtrTrackerIiE11MarkDeletedEPi
FNDA:5,_ZNK3emp10PtrTrackerIiE8IsActiveEPi
FNDA:3,_ZN3emp10PtrTrackerIiE3IncEPi
FNDA:1,_ZN3emp10PtrTrackerIiED2Ev
FNDA:21,_ZN3emp10PtrTrackerIcE3GetEv
FNDA:2,_ZN3emp3PtrIcE3NewERKc
FNDA:1,_ZN3emp3PtrIiEC2ERi
FNDA:1,_ZN3emp3PtrIcEaSERKS1_
FNDA:20,_ZN3emp3PtrIcE7TrackerEv
FNDA:15,_ZN3emp7PtrInfoC2Eb
FNDA:3,_ZNK3emp7PtrInfo7IsOwnerEv
FNDA:15,_ZN3emp7PtrInfoD2Ev
FNDA:2,_ZN3emp3PtrIiE6DeleteEv
FNDA:1,_ZN3emp3PtrIiE3NewEv
FNDA:1,_ZN3emp10PtrTrackerIcEC2Ev
FNDA:10,_ZN3emp10PtrTrackerIcE3IncEPc
FNDA:7,_ZNK3emp7PtrInfo8GetCountEv
FNDA:4,_ZNK3emp10PtrTrackerIiE8GetCountEPi
FNDA:7,_ZN3emp10PtrTrackerIiE3DecEPi
FNDA:1,_ZN3emp3PtrIiEC2Ev
FNDA:4,_ZNK3emp10PtrTrackerIcE8GetCountEPc
FNDA:4,_ZNK3emp7PtrInfo8IsActiveEv
FNDA:4,_ZN3emp3PtrIiED2Ev
FNDA:4,_ZNK3emp10PtrTrackerIiE7IsOwnerEPi
FNDA:10,_ZN3emp7PtrInfo3DecEv
FNDA:9,_ZN3emp3PtrIcEC2ERKS1_
FNDA:12,_ZN3emp3PtrIiE7TrackerEv
FNDA:2,_ZN3emp10PtrTrackerIiE3OldEPi
FNDA:1,_ZN3emp10PtrTrackerIiEC2Ev
FNDA:1,_ZN3emp3PtrIcE6DeleteEv
FNF:46
FNH:45
DA:24,15
DA:25,15
DA:27,7
DA:28,4
DA:29,3
DA:31,13
DA:32,10
DA:34,10
DA:36,5
DA:42,5
DA:43,5
DA:46,4
DA:47,4
DA:48,4
DA:49,4
DA:50,4
DA:70,2
DA:74,2
DA:80,35
DA:83,56
DA:84,56
DA:85,56
DA:87,5
DA:88,5
DA:89,5
DA:90,4
DA:92,4
DA:93,4
DA:94,4
DA:95,3
DA:97,8
DA:98,8
DA:99,8
DA:100,7
DA:104,6
DA:105,6
DA:106,6
DA:107,6
DA:108,6
DA:111,2
DA:112,2
DA:113,2
DA:114,2
DA:115,2
DA:116,13
DA:117,13
DA:118,13
DA:119,13
DA:120,13
DA:121,10
DA:122,10
DA:123,10
DA:124,10
DA:125,10
DA:126,4
DA:127,4
DA:128,4
DA:129,4
DA:130,4
DA:147,32
DA:150,2
DA:151,1
DA:152,1
DA:153,10
DA:154,4
DA:158,1
DA:159,1
DA:160,1
DA:161,1
DA:162,1
DA:163,2
DA:164,2
DA:165,2
DA:166,2
DA:167,2
DA:168,3
DA:169,3
DA:170,3
DA:171,3
DA:172,3
DA:174,1
DA:175,1
DA:176,1
DA:177,1
DA:178,1
DA:181,10
DA:193,4
LF:87
LH:87
end_of_record
TN:
SF:/home/jgf/git/Empirical/tools/Random.h
FN:74,_ZN3emp6Random4initEv
FN:107,_ZN3emp6Random3GetEv
FN:124,_ZN3emp6RandomC2Ei
FN:129,_ZN3emp6RandomD2Ev
FN:149,_ZN3emp6Random9ResetSeedEi
FN:174,_ZN3emp6Random9GetDoubleEv
FN:191,_ZN3emp6Random9GetDoubleEdd
FN:199,_ZN3emp6Random7GetUIntEj
FN:217,_ZN3emp6Random6GetIntEi
FN:218,_ZN3emp6Random6GetIntEii
FN:224,_ZN3emp6Random1PEd
FNDA:2,_ZN3emp6Random9ResetSeedEi
FNDA:100031,_ZN3emp6Random1PEd
FNDA:19,_ZN3emp6Random6GetIntEi
FNDA:2,_ZN3emp6RandomD2Ev
FNDA:2,_ZN3emp6RandomC2Ei
FNDA:200019,_ZN3emp6Random9GetDoubleEv
FNDA:100000,_ZN3emp6Random9GetDoubleEdd
FNDA:100000,_ZN3emp6Random6GetIntEii
FNDA:100019,_ZN3emp6Random7GetUIntEj
FNDA:2,_ZN3emp6Random4initEv
FNDA:300052,_ZN3emp6Random3GetEv
FNF:11
FNH:11
DA:74,2
DA:77,2
DA:79,2
DA:80,2
DA:81,2
DA:83,110
DA:84,108
DA:85,108
DA:86,108
DA:87,108
DA:88,108
DA:91,10
DA:92,440
DA:93,432
DA:94,432
DA:98,2
DA:99,2
DA:102,2
DA:103,2
DA:107,300052
DA:108,300052
DA:109,300052
DA:110,300052
DA:111,300052
DA:112,300052
DA:114,300052
DA:124,2
DA:125,2
DA:126,2
DA:127,2
DA:129,2
DA:149,2
DA:150,2
DA:152,2
DA:153,2
DA:154,2
DA:155,2
DA:157,0
DA:160,2
DA:161,2
DA:163,2
DA:164,2
DA:174,200019
DA:191,100000
DA:199,100019
DA:217,19
DA:218,100000
DA:224,100031
LF:48
LH:47
end_of_record
TN:
SF:/home/jgf/git/Empirical/tools/Trait.h
FN:29,_ZN3emp8TraitDefIiEC2ERKS1_
FN:29,_ZN3emp8TraitDefINSt7__cxx1112basic_stringIcSt11char_traitsIcESaIcEEEEC2ERKS7_
FN:37,_ZN3emp8TraitDefIiEC2ERKNSt7__cxx1112basic_stringIcSt11char_traitsIcESaIcEEES9_RKii
FN:37,_ZN3emp8TraitDefINSt7__cxx1112basic_stringIcSt11char_traitsIcESaIcEEEEC2ERKS6_S9_S9_i
FN:41,_ZN3emp8TraitDefIcED2Ev
FN:41,_ZN3emp8TraitDefISt6vectorIbSaIbEEED2Ev
FN:41,_ZN3emp8TraitDefIdED2Ev
FN:41,_ZN3emp8TraitDefIiED2Ev
FN:41,_ZN3emp8TraitDefINSt7__cxx1112basic_stringIcSt11char_traitsIcESaIcEEEED2Ev
FN:45,_ZNK3emp8TraitDefIdE10GetDefaultEv
FN:45,_ZNK3emp8TraitDefIcE10GetDefaultEv
FN:45,_ZNK3emp8TraitDefIiE10GetDefaultEv
FN:45,_ZNK3emp8TraitDefINSt7__cxx1112basic_stringIcSt11char_traitsIcESaIcEEEE10GetDefaultEv
FN:45,_ZNK3emp8TraitDefISt6vectorIbSaIbEEE10GetDefaultEv
FN:53,_ZN3emp8TraitSetIJidSt6vectorIbSaIbEEcNSt7__cxx1112basic_stringIcSt11char_traitsIcESaIcEEEEED2Ev
FN:68,_ZN3emp8TraitSetIJidSt6vectorIbSaIbEEcNSt7__cxx1112basic_stringIcSt11char_traitsIcESaIcEEEEE10GetTypeSetIiEERS1_IT_SaISC_EEv
FN:68,_ZN3emp8TraitSetIJidSt6vectorIbSaIbEEcNSt7__cxx1112basic_stringIcSt11char_traitsIcESaIcEEEEE10GetTypeSetIcEERS1_IT_SaISC_EEv
FN:68,_ZN3emp8TraitSetIJidSt6vectorIbSaIbEEcNSt7__cxx1112basic_stringIcSt11char_traitsIcESaIcEEEEE10GetTypeSetIS3_EERS1_IT_SaISC_EEv
FN:68,_ZN3emp8TraitSetIJidSt6vectorIbSaIbEEcNSt7__cxx1112basic_stringIcSt11char_traitsIcESaIcEEEEE10GetTypeSetIdEERS1_IT_SaISC_EEv
FN:68,_ZN3emp8TraitSetIJidSt6vectorIbSaIbEEcNSt7__cxx1112basic_stringIcSt11char_traitsIcESaIcEEEEE10GetTypeSetIS9_EERS1_IT_SaISC_EEv
FN:114,_ZNK3emp12TraitManagerIJidSt6vectorIbSaIbEEcNSt7__cxx1112basic_stringIcSt11char_traitsIcESaIcEEEEE13GetTraitGroupIS3_EERKS1_INS_8TraitDefIT_EESaISE_EEv
FN:114,_ZNK3emp12TraitManagerIJidSt6vectorIbSaIbEEcNSt7__cxx1112basic_stringIcSt11char_traitsIcESaIcEEEEE13GetTraitGroupIS9_EERKS1_INS_8TraitDefIT_EESaISE_EEv
FN:114,_ZNK3emp12TraitManagerIJidSt6vectorIbSaIbEEcNSt7__cxx1112basic_stringIcSt11char_traitsIcESaIcEEEEE13GetTraitGroupIdEERKS1_INS_8TraitDefIT_EESaISE_EEv
FN:114,_ZNK3emp12TraitManagerIJidSt6vectorIbSaIbEEcNSt7__cxx1112basic_stringIcSt11char_traitsIcESaIcEEEEE13GetTraitGroupIcEERKS1_INS_8TraitDefIT_EESaISE_EEv
FN:114,_ZNK3emp12TraitManagerIJidSt6vectorIbSaIbEEcNSt7__cxx1112basic_stringIcSt11char_traitsIcESaIcEEEEE13GetTraitGroupIiEERKS1_INS_8TraitDefIT_EESaISE_EEv
FN:122,_ZN3emp12TraitManagerIJidSt6vectorIbSaIbEEcNSt7__cxx1112basic_stringIcSt11char_traitsIcESaIcEEEEE13GetTraitGroupIS9_EERS1_INS_8TraitDefIT_EESaISE_EEv
FN:122,_ZN3emp12TraitManagerIJidSt6vectorIbSaIbEEcNSt7__cxx1112basic_stringIcSt11char_traitsIcESaIcEEEEE13GetTraitGroupIiEERS1_INS_8TraitDefIT_EESaISE_EEv
FN:130,_ZNK3emp12TraitManagerIJidSt6vectorIbSaIbEEcNSt7__cxx1112basic_stringIcSt11char_traitsIcESaIcEEEEE17SetDefaultsByTypeIiEEvRNS_8TraitSetIJidS3_cS9_EEE
FN:130,_ZNK3emp12TraitManagerIJidSt6vectorIbSaIbEEcNSt7__cxx1112basic_stringIcSt11char_traitsIcESaIcEEEEE17SetDefaultsByTypeIcEEvRNS_8TraitSetIJidS3_cS9_EEE
FN:130,_ZNK3emp12TraitManagerIJidSt6vectorIbSaIbEEcNSt7__cxx1112basic_stringIcSt11char_traitsIcESaIcEEEEE17SetDefaultsByTypeIS3_EEvRNS_8TraitSetIJidS3_cS9_EEE
FN:130,_ZNK3emp12TraitManagerIJidSt6vectorIbSaIbEEcNSt7__cxx1112basic_stringIcSt11char_traitsIcESaIcEEEEE17SetDefaultsByTypeIS9_EEvRNS_8TraitSetIJidS3_cS9_EEE
FN:130,_ZNK3emp12TraitManagerIJidSt6vectorIbSaIbEEcNSt7__cxx1112basic_stringIcSt11char_traitsIcESaIcEEEEE17SetDefaultsByTypeIdEEvRNS_8TraitSetIJidS3_cS9_EEE
FN:143,_ZNK3emp12TraitManagerIJidSt6vectorIbSaIbEEcNSt7__cxx1112basic_stringIcSt11char_traitsIcESaIcEEEEE17SetDefaultsByTypeIS3_cJS9_EEEvRNS_8TraitSetIJidS3_cS9_EEE
FN:143,_ZNK3emp12TraitManagerIJidSt6vectorIbSaIbEEcNSt7__cxx1112basic_stringIcSt11char_traitsIcESaIcEEEEE17SetDefaultsByTypeIdS3_JcS9_EEEvRNS_8TraitSetIJidS3_cS9_EEE
FN:143,_ZNK3emp12TraitManagerIJidSt6vectorIbSaIbEEcNSt7__cxx1112basic_stringIcSt11char_traitsIcESaIcEEEEE17SetDefaultsByTypeIidJS3_cS9_EEEvRNS_8TraitSetIJidS3_cS9_EEE
FN:143,_ZNK3emp12TraitManagerIJidSt6vectorIbSaIbEEcNSt7__cxx1112basic_stringIcSt11char_traitsIcESaIcEEEEE17SetDefaultsByTypeIcS9_JEEEvRNS_8TraitSetIJidS3_cS9_EEE
FN:151,_ZN3emp12TraitManagerIJidSt6vectorIbSaIbEEcNSt7__cxx1112basic_stringIcSt11char_traitsIcESaIcEEEEEC2Ev
FN:152,_ZN3emp12TraitManagerIJidSt6vectorIbSaIbEEcNSt7__cxx1112basic_stringIcSt11char_traitsIcESaIcEEEEED2Ev
FN:177,_ZN3emp12TraitManagerIJidSt6vectorIbSaIbEEcNSt7__cxx1112basic_stringIcSt11char_traitsIcESaIcEEEEE8AddTraitIS9_EERKNS_8TraitDefIT_EERKS9_SI_RKSD_
FN:177,_ZN3emp12TraitManagerIJidSt6vectorIbSaIbEEcNSt7__cxx1112basic_stringIcSt11char_traitsIcESaIcEEEEE8AddTraitIiEERKNS_8TraitDefIT_EERKS9_SI_RKSD_
FN:186,_ZNK3emp12TraitManagerIJidSt6vectorIbSaIbEEcNSt7__cxx1112basic_stringIcSt11char_traitsIcESaIcEEEEE11SetDefaultsERNS_8TraitSetIJidS3_cS9_EEE
FN:193,_ZN3emp8TraitSetIJidSt6vectorIbSaIbEEcNSt7__cxx1112basic_stringIcSt11char_traitsIcESaIcEEEEEC2ERKNS_12TraitManagerIJidS3_cS9_EEE
FNDA:0,_ZNK3emp8TraitDefIiE10GetDefaultEv
FNDA:1,_ZN3emp12TraitManagerIJidSt6vectorIbSaIbEEcNSt7__cxx1112basic_stringIcSt11char_traitsIcESaIcEEEEE13GetTraitGroupIS9_EERS1_INS_8TraitDefIT_EESaISE_EEv
FNDA:0,_ZNK3emp8TraitDefINSt7__cxx1112basic_stringIcSt11char_traitsIcESaIcEEEE10GetDefaultEv
FNDA:1,_ZN3emp8TraitSetIJidSt6vectorIbSaIbEEcNSt7__cxx1112basic_stringIcSt11char_traitsIcESaIcEEEEE10GetTypeSetIS3_EERS1_IT_SaISC_EEv
FNDA:1,_ZN3emp8TraitSetIJidSt6vectorIbSaIbEEcNSt7__cxx1112basic_stringIcSt11char_traitsIcESaIcEEEEEC2ERKNS_12TraitManagerIJidS3_cS9_EEE
FNDA:1,_ZNK3emp12TraitManagerIJidSt6vectorIbSaIbEEcNSt7__cxx1112basic_stringIcSt11char_traitsIcESaIcEEEEE17SetDefaultsByTypeIidJS3_cS9_EEEvRNS_8TraitSetIJidS3_cS9_EEE
FNDA:1,_ZNK3emp12TraitManagerIJidSt6vectorIbSaIbEEcNSt7__cxx1112basic_stringIcSt11char_traitsIcESaIcEEEEE17SetDefaultsByTypeIiEEvRNS_8TraitSetIJidS3_cS9_EEE
FNDA:1,_ZN3emp12TraitManagerIJidSt6vectorIbSaIbEEcNSt7__cxx1112basic_stringIcSt11char_traitsIcESaIcEEEEED2Ev
FNDA:1,_ZNK3emp12TraitManagerIJidSt6vectorIbSaIbEEcNSt7__cxx1112basic_stringIcSt11char_traitsIcESaIcEEEEE17SetDefaultsByTypeIcS9_JEEEvRNS_8TraitSetIJidS3_cS9_EEE
FNDA:0,_ZNK3emp8TraitDefIcE10GetDefaultEv
FNDA:3,_ZN3emp8TraitDefIiEC2ERKS1_
FNDA:1,_ZNK3emp12TraitManagerIJidSt6vectorIbSaIbEEcNSt7__cxx1112basic_stringIcSt11char_traitsIcESaIcEEEEE17SetDefaultsByTypeIcEEvRNS_8TraitSetIJidS3_cS9_EEE
FNDA:1,_ZNK3emp12TraitManagerIJidSt6vectorIbSaIbEEcNSt7__cxx1112basic_stringIcSt11char_traitsIcESaIcEEEEE17SetDefaultsByTypeIS3_EEvRNS_8TraitSetIJidS3_cS9_EEE
FNDA:1,_ZN3emp8TraitSetIJidSt6vectorIbSaIbEEcNSt7__cxx1112basic_stringIcSt11char_traitsIcESaIcEEEEED2Ev
FNDA:1,_ZN3emp8TraitSetIJidSt6vectorIbSaIbEEcNSt7__cxx1112basic_stringIcSt11char_traitsIcESaIcEEEEE10GetTypeSetIcEERS1_IT_SaISC_EEv
FNDA:0,_ZNK3emp8TraitDefIdE10GetDefaultEv
FNDA:1,_ZN3emp8TraitSetIJidSt6vectorIbSaIbEEcNSt7__cxx1112basic_stringIcSt11char_traitsIcESaIcEEEEE10GetTypeSetIiEERS1_IT_SaISC_EEv
FNDA:1,_ZNK3emp12TraitManagerIJidSt6vectorIbSaIbEEcNSt7__cxx1112basic_stringIcSt11char_traitsIcESaIcEEEEE17SetDefaultsByTypeIS3_cJS9_EEEvRNS_8TraitSetIJidS3_cS9_EEE
FNDA:1,_ZN3emp12TraitManagerIJidSt6vectorIbSaIbEEcNSt7__cxx1112basic_stringIcSt11char_traitsIcESaIcEEEEE8AddTraitIS9_EERKNS_8TraitDefIT_EERKS9_SI_RKSD_
FNDA:0,_ZN3emp8TraitDefIcED2Ev
FNDA:1,_ZNK3emp12TraitManagerIJidSt6vectorIbSaIbEEcNSt7__cxx1112basic_stringIcSt11char_traitsIcESaIcEEEEE17SetDefaultsByTypeIdS3_JcS9_EEEvRNS_8TraitSetIJidS3_cS9_EEE
FNDA:2,_ZN3emp8TraitDefIiEC2ERKNSt7__cxx1112basic_stringIcSt11char_traitsIcESaIcEEES9_RKii
FNDA:1,_ZNK3emp12TraitManagerIJidSt6vectorIbSaIbEEcNSt7__cxx1112basic_stringIcSt11char_traitsIcESaIcEEEEE13GetTraitGroupIS3_EERKS1_INS_8TraitDefIT_EESaISE_EEv
FNDA:1,_ZNK3emp12TraitManagerIJidSt6vectorIbSaIbEEcNSt7__cxx1112basic_stringIcSt11char_traitsIcESaIcEEEEE17SetDefaultsByTypeIdEEvRNS_8TraitSetIJidS3_cS9_EEE
FNDA:1,_ZN3emp8TraitSetIJidSt6vectorIbSaIbEEcNSt7__cxx1112basic_stringIcSt11char_traitsIcESaIcEEEEE10GetTypeSetIS9_EERS1_IT_SaISC_EEv
FNDA:0,_ZNK3emp8TraitDefISt6vectorIbSaIbEEE10GetDefaultEv
FNDA:1,_ZN3emp12TraitManagerIJidSt6vectorIbSaIbEEcNSt7__cxx1112basic_stringIcSt11char_traitsIcESaIcEEEEEC2Ev
FNDA:1,_ZNK3emp12TraitManagerIJidSt6vectorIbSaIbEEcNSt7__cxx1112basic_stringIcSt11char_traitsIcESaIcEEEEE13GetTraitGroupIiEERKS1_INS_8TraitDefIT_EESaISE_EEv
FNDA:1,_ZN3emp8TraitDefINSt7__cxx1112basic_stringIcSt11char_traitsIcESaIcEEEEC2ERKS6_S9_S9_i
FNDA:5,_ZN3emp8TraitDefIiED2Ev
FNDA:2,_ZN3emp8TraitDefINSt7__cxx1112basic_stringIcSt11char_traitsIcESaIcEEEED2Ev
FNDA:2,_ZN3emp12TraitManagerIJidSt6vectorIbSaIbEEcNSt7__cxx1112basic_stringIcSt11char_traitsIcESaIcEEEEE13GetTraitGroupIiEERS1_INS_8TraitDefIT_EESaISE_EEv
FNDA:1,_ZNK3emp12TraitManagerIJidSt6vectorIbSaIbEEcNSt7__cxx1112basic_stringIcSt11char_traitsIcESaIcEEEEE13GetTraitGroupIcEERKS1_INS_8TraitDefIT_EESaISE_EEv
FNDA:1,_ZNK3emp12TraitManagerIJidSt6vectorIbSaIbEEcNSt7__cxx1112basic_stringIcSt11char_traitsIcESaIcEEEEE11SetDefaultsERNS_8TraitSetIJidS3_cS9_EEE
FNDA:1,_ZNK3emp12TraitManagerIJidSt6vectorIbSaIbEEcNSt7__cxx1112basic_stringIcSt11char_traitsIcESaIcEEEEE17SetDefaultsByTypeIS9_EEvRNS_8TraitSetIJidS3_cS9_EEE
FNDA:1,_ZN3emp8TraitSetIJidSt6vectorIbSaIbEEcNSt7__cxx1112basic_stringIcSt11char_traitsIcESaIcEEEEE10GetTypeSetIdEERS1_IT_SaISC_EEv
FNDA:2,_ZN3emp12TraitManagerIJidSt6vectorIbSaIbEEcNSt7__cxx1112basic_stringIcSt11char_traitsIcESaIcEEEEE8AddTraitIiEERKNS_8TraitDefIT_EERKS9_SI_RKSD_
FNDA:1,_ZNK3emp12TraitManagerIJidSt6vectorIbSaIbEEcNSt7__cxx1112basic_stringIcSt11char_traitsIcESaIcEEEEE13GetTraitGroupIS9_EERKS1_INS_8TraitDefIT_EESaISE_EEv
FNDA:0,_ZN3emp8TraitDefISt6vectorIbSaIbEEED2Ev
FNDA:1,_ZN3emp8TraitDefINSt7__cxx1112basic_stringIcSt11char_traitsIcESaIcEEEEC2ERKS7_
FNDA:1,_ZNK3emp12TraitManagerIJidSt6vectorIbSaIbEEcNSt7__cxx1112basic_stringIcSt11char_traitsIcESaIcEEEEE13GetTraitGroupIdEERKS1_INS_8TraitDefIT_EESaISE_EEv
FNDA:0,_ZN3emp8TraitDefIdED2Ev
FNF:42
FNH:34
DA:29,4
DA:37,3
DA:39,3
DA:40,3
DA:41,7
DA:45,0
DA:53,1
DA:68,5
DA:69,5
DA:71,5
DA:114,5
DA:117,5
DA:122,3
DA:125,3
DA:130,5
DA:132,5
DA:133,5
DA:136,5
DA:137,5
DA:138,0
DA:140,5
DA:143,4
DA:144,4
DA:147,4
DA:148,4
DA:151,1
DA:152,1
DA:177,3
DA:179,3
DA:180,3
DA:181,3
DA:182,3
DA:183,3
DA:186,1
DA:187,1
DA:188,1
DA:193,1
DA:194,1
DA:195,1
LF:39
LH:37
end_of_record
TN:
SF:/home/jgf/git/Empirical/tools/alert.h
FN:23,_ZN3emp5AlertERKNSt7__cxx1112basic_stringIcSt11char_traitsIcESaIcEEE
FN:30,_ZN3empL11CappedAlertIJPKcNSt7__cxx1112basic_stringIcSt11char_traitsIcESaIcEEEEEEviDpT_
FN:30,_ZN3empL11CappedAlertIJPKcNSt7__cxx1112basic_stringIcSt11char_traitsIcESaIcEEES2_mEEEviDpT_
FNDA:0,_ZN3emp5AlertERKNSt7__cxx1112basic_stringIcSt11char_traitsIcESaIcEEE
FNDA:0,_ZN3empL11CappedAlertIJPKcNSt7__cxx1112basic_stringIcSt11char_traitsIcESaIcEEEEEEviDpT_
FNDA:0,_ZN3empL11CappedAlertIJPKcNSt7__cxx1112basic_stringIcSt11char_traitsIcESaIcEEES2_mEEEviDpT_
FNF:3
FNH:0
DA:23,0
DA:30,0
DA:32,0
DA:33,0
LF:4
LH:0
end_of_record
TN:
SF:/home/jgf/git/Empirical/tools/assert.h
FN:53,_ZN3emp14AssertFailInfoC2Ev
FN:53,_ZN3emp14AssertFailInfoD2Ev
FNDA:1,_ZN3emp14AssertFailInfoC2Ev
FNDA:0,_ZN3emp14AssertFailInfoD2Ev
FNF:2
FNH:1
DA:53,1
DA:58,1
LF:2
LH:2
end_of_record
TN:
SF:/home/jgf/git/Empirical/tools/bitset_utils.h
FN:43,_ZN3emp10count_bitsEj
FN:52,_ZN3emp8find_bitEj
FNDA:1,_ZN3emp10count_bitsEj
FNDA:1,_ZN3emp8find_bitEj
FNF:2
FNH:2
DA:43,1
DA:45,2
DA:46,2
DA:47,1
DA:48,1
DA:52,1
LF:6
LH:6
end_of_record
TN:
SF:/home/jgf/git/Empirical/tools/const_utils.h
FN:27,_ZN3emp8constantL7MaskLowIjEET_i
FN:27,_ZN3emp8constantL7MaskLowImEET_i
FNDA:0,_ZN3emp8constantL7MaskLowImEET_i
FNDA:4,_ZN3emp8constantL7MaskLowIjEET_i
FNF:2
FNH:1
DA:27,4
DA:28,4
LF:2
LH:2
end_of_record
TN:
SF:/home/jgf/git/Empirical/tools/errors.h
FN:14,_ZN3emp6NotifyENSt7__cxx1112basic_stringIcSt11char_traitsIcESaIcEEE
FN:22,_ZN3emp13NotifyWarningENSt7__cxx1112basic_stringIcSt11char_traitsIcESaIcEEE
FN:28,_ZN3emp11NotifyErrorENSt7__cxx1112basic_stringIcSt11char_traitsIcESaIcEEE
FNDA:0,_ZN3emp11NotifyErrorENSt7__cxx1112basic_stringIcSt11char_traitsIcESaIcEEE
FNDA:0,_ZN3emp6NotifyENSt7__cxx1112basic_stringIcSt11char_traitsIcESaIcEEE
FNDA:0,_ZN3emp13NotifyWarningENSt7__cxx1112basic_stringIcSt11char_traitsIcESaIcEEE
FNF:3
FNH:0
DA:14,0
DA:18,0
DA:20,0
DA:22,0
DA:23,0
DA:24,0
DA:25,0
DA:26,0
DA:28,0
DA:29,0
DA:30,0
DA:31,0
DA:32,0
LF:13
LH:0
end_of_record
TN:
SF:/home/jgf/git/Empirical/tools/functions.h
FN:25,_ZN3emp8time_funESt8functionIFvvEE
FN:33,_ZN3emp6toggleERb
FN:36,_ZN3emp3modEii
FN:41,_ZN3empL3powEii
FN:55,_ZN3emp8to_rangeIdEET_RKS1_S3_S3_
FN:55,_ZN3emp8to_rangeIiEET_RKS1_S3_S3_
FN:59,_ZN3emp3minIiEERKT_S3_S3_S3_
FN:83,_ZN3empL11build_rangeEiii
FN:112,_ZN3emp14get_type_indexIiEEiv
FN:112,_ZN3emp14get_type_indexIdEEiv
FN:112,_ZN3emp14get_type_indexIcEEiv
FN:112,_ZN3emp14get_type_indexINSt7__cxx1112basic_stringIcSt11char_traitsIcESaIcEEEEEiv
FN:119,_ZN3emp14get_type_indexIibJidEEEiv
FN:119,_ZN3emp14get_type_indexIddJEEEiv
FN:119,_ZN3emp14get_type_indexIdiJdEEEiv
FN:119,_ZN3emp14get_type_indexIcbJidEEEiv
FN:119,_ZN3emp14get_type_indexIdcJbidEEEiv
FN:119,_ZN3emp14get_type_indexIidJEEEiv
FN:119,_ZN3emp14get_type_indexIciJdEEEiv
FN:119,_ZN3emp14get_type_indexIiiJdEEEiv
FN:119,_ZN3emp14get_type_indexIccJbidEEEiv
FN:119,_ZN3emp14get_type_indexINSt7__cxx1112basic_stringIcSt11char_traitsIcESaIcEEEdJEEEiv
FN:119,_ZN3emp14get_type_indexIcdJEEEiv
FN:119,_ZN3emp14get_type_indexINSt7__cxx1112basic_stringIcSt11char_traitsIcESaIcEEEiJdEEEiv
FN:119,_ZN3emp14get_type_indexINSt7__cxx1112basic_stringIcSt11char_traitsIcESaIcEEEbJidEEEiv
FN:119,_ZN3emp14get_type_indexIdbJidEEEiv
FN:119,_ZN3emp14get_type_indexINSt7__cxx1112basic_stringIcSt11char_traitsIcESaIcEEEcJbidEEEiv
FN:119,_ZN3emp14get_type_indexIicJbidEEEiv
FN:127,_ZN3emp21has_unique_first_typeINSt7__cxx1112basic_stringIcSt11char_traitsIcESaIcEEEEEbv
FN:127,_ZN3emp21has_unique_first_typeIbEEbv
FN:127,_ZN3emp21has_unique_first_typeISt6vectorIbSaIbEEEEbv
FN:127,_ZN3emp21has_unique_first_typeIiEEbv
FN:128,_ZN3emp16has_unique_typesIcEEbv
FN:131,_ZN3emp21has_unique_first_typeIibJNSt7__cxx1112basic_stringIcSt11char_traitsIcESaIcEEEbcEEEbv
FN:131,_ZN3emp21has_unique_first_typeIbcJEEEbv
FN:131,_ZN3emp21has_unique_first_typeIbNSt7__cxx1112basic_stringIcSt11char_traitsIcESaIcEEEJSt6vectorIbSaIbEEcEEEbv
FN:131,_ZN3emp21has_unique_first_typeISt6vectorIbSaIbEEcJEEEbv
FN:131,_ZN3emp21has_unique_first_typeINSt7__cxx1112basic_stringIcSt11char_traitsIcESaIcEEESt6vectorIbSaIbEEJcEEEbv
FN:131,_ZN3emp21has_unique_first_typeINSt7__cxx1112basic_stringIcSt11char_traitsIcESaIcEEEbJcEEEbv
FN:131,_ZN3emp21has_unique_first_typeIiSt6vectorIbSaIbEEJcEEEbv
FN:131,_ZN3emp21has_unique_first_typeIbbJcEEEbv
FN:131,_ZN3emp21has_unique_first_typeIicJEEEbv
FN:131,_ZN3emp21has_unique_first_typeIibJcEEEbv
FN:131,_ZN3emp21has_unique_first_typeIbNSt7__cxx1112basic_stringIcSt11char_traitsIcESaIcEEEJbcEEEbv
FN:131,_ZN3emp21has_unique_first_typeIbSt6vectorIbSaIbEEJcEEEbv
FN:131,_ZN3emp21has_unique_first_typeIiNSt7__cxx1112basic_stringIcSt11char_traitsIcESaIcEEEJSt6vectorIbSaIbEEcEEEbv
FN:131,_ZN3emp21has_unique_first_typeIiNSt7__cxx1112basic_stringIcSt11char_traitsIcESaIcEEEJbcEEEbv
FN:131,_ZN3emp21has_unique_first_typeIbiJNSt7__cxx1112basic_stringIcSt11char_traitsIcESaIcEEESt6vectorIbSaIbEEcEEEbv
FN:131,_ZN3emp21has_unique_first_typeIbiJNSt7__cxx1112basic_stringIcSt11char_traitsIcESaIcEEEbcEEEbv
FN:131,_ZN3emp21has_unique_first_typeINSt7__cxx1112basic_stringIcSt11char_traitsIcESaIcEEEcJEEEbv
FN:136,_ZN3emp16has_unique_typesIbNSt7__cxx1112basic_stringIcSt11char_traitsIcESaIcEEEJbcEEEbv
FN:136,_ZN3emp16has_unique_typesIbiJNSt7__cxx1112basic_stringIcSt11char_traitsIcESaIcEEESt6vectorIbSaIbEEcEEEbv
FN:136,_ZN3emp16has_unique_typesINSt7__cxx1112basic_stringIcSt11char_traitsIcESaIcEEEbJcEEEbv
FN:136,_ZN3emp16has_unique_typesIbcJEEEbv
FN:136,_ZN3emp16has_unique_typesISt6vectorIbSaIbEEcJEEEbv
FN:136,_ZN3emp16has_unique_typesIiNSt7__cxx1112basic_stringIcSt11char_traitsIcESaIcEEEJSt6vectorIbSaIbEEcEEEbv
FN:136,_ZN3emp16has_unique_typesINSt7__cxx1112basic_stringIcSt11char_traitsIcESaIcEEESt6vectorIbSaIbEEJcEEEbv
FN:136,_ZN3emp16has_unique_typesIibJNSt7__cxx1112basic_stringIcSt11char_traitsIcESaIcEEEbcEEEbv
FN:149,_ZN3emp8internal10apply_implIPFviicERSt5tupleIJiicEELb0ELi3EJEE5applyES3_S6_
FN:149,_ZN3emp8internal10apply_implIPFviicERSt5tupleIJiicEELb0ELi3EJLi0ELi1EEE5applyES3_S6_
FN:149,_ZN3emp8internal10apply_implIPFviicERSt5tupleIJiicEELb0ELi3EJLi0EEE5applyES3_S6_
FN:156,_ZN3emp8internal10apply_implIPFviicERSt5tupleIJiicEELb1ELi3EJLi0ELi1ELi2EEE5applyES3_S6_
FN:164,_ZN3emp10ApplyTupleIPFviicERSt5tupleIJiicEEEEvT_OT0_
FNDA:2,_ZN3emp21has_unique_first_typeIiNSt7__cxx1112basic_stringIcSt11char_traitsIcESaIcEEEJbcEEEbv
FNDA:1,_ZN3emp14get_type_indexINSt7__cxx1112basic_stringIcSt11char_traitsIcESaIcEEEbJidEEEiv
FNDA:4,_ZN3emp3modEii
FNDA:1,_ZN3emp16has_unique_typesINSt7__cxx1112basic_stringIcSt11char_traitsIcESaIcEEESt6vectorIbSaIbEEJcEEEbv
FNDA:1,_ZN3emp21has_unique_first_typeIbSt6vectorIbSaIbEEJcEEEbv
FNDA:1,_ZN3emp21has_unique_first_typeIiNSt7__cxx1112basic_stringIcSt11char_traitsIcESaIcEEEJSt6vectorIbSaIbEEcEEEbv
FNDA:1,_ZN3emp14get_type_indexINSt7__cxx1112basic_stringIcSt11char_traitsIcESaIcEEEiJdEEEiv
FNDA:2,_ZN3emp21has_unique_first_typeIbNSt7__cxx1112basic_stringIcSt11char_traitsIcESaIcEEEJbcEEEbv
FNDA:8,_ZN3emp8to_rangeIiEET_RKS1_S3_S3_
FNDA:2,_ZN3emp21has_unique_first_typeIibJcEEEbv
FNDA:3,_ZN3emp21has_unique_first_typeIicJEEEbv
FNDA:0,_ZN3emp14get_type_indexIcdJEEEiv
FNDA:1,_ZN3emp16has_unique_typesIiNSt7__cxx1112basic_stringIcSt11char_traitsIcESaIcEEEJSt6vectorIbSaIbEEcEEEbv
FNDA:1,_ZN3emp14get_type_indexINSt7__cxx1112basic_stringIcSt11char_traitsIcESaIcEEEdJEEEiv
FNDA:2,_ZN3emp8to_rangeIdEET_RKS1_S3_S3_
FNDA:2,_ZN3emp21has_unique_first_typeIbbJcEEEbv
FNDA:1,_ZN3emp21has_unique_first_typeIbEEbv
FNDA:3,_ZN3empL3powEii
FNDA:1,_ZN3emp21has_unique_first_typeIiSt6vectorIbSaIbEEJcEEEbv
FNDA:1,_ZN3emp14get_type_indexIccJbidEEEiv
FNDA:1,_ZN3emp21has_unique_first_typeINSt7__cxx1112basic_stringIcSt11char_traitsIcESaIcEEEcJEEEbv
FNDA:1,_ZN3emp21has_unique_first_typeIbiJNSt7__cxx1112basic_stringIcSt11char_traitsIcESaIcEEEbcEEEbv
FNDA:3,_ZN3emp21has_unique_first_typeIiEEbv
FNDA:1,_ZN3emp14get_type_indexIicJbidEEEiv
FNDA:1,_ZN3emp21has_unique_first_typeIbiJNSt7__cxx1112basic_stringIcSt11char_traitsIcESaIcEEESt6vectorIbSaIbEEcEEEbv
FNDA:1,_ZN3emp16has_unique_typesIibJNSt7__cxx1112basic_stringIcSt11char_traitsIcESaIcEEEbcEEEbv
FNDA:1,_ZN3emp14get_type_indexINSt7__cxx1112basic_stringIcSt11char_traitsIcESaIcEEEcJbidEEEiv
FNDA:1,_ZN3emp8internal10apply_implIPFviicERSt5tupleIJiicEELb0ELi3EJLi0EEE5applyES3_S6_
FNDA:1,_ZN3emp21has_unique_first_typeISt6vectorIbSaIbEEEEbv
FNDA:1,_ZN3empL11build_rangeEiii
FNDA:1,_ZN3emp14get_type_indexIdbJidEEEiv
FNDA:1,_ZN3emp8internal10apply_implIPFviicERSt5tupleIJiicEELb0ELi3EJLi0ELi1EEE5applyES3_S6_
FNDA:1,_ZN3emp16has_unique_typesIcEEbv
FNDA:1,_ZN3emp8internal10apply_implIPFviicERSt5tupleIJiicEELb0ELi3EJEE5applyES3_S6_
FNDA:0,_ZN3emp14get_type_indexIiEEiv
FNDA:1,_ZN3emp14get_type_indexIdcJbidEEEiv
FNDA:0,_ZN3emp14get_type_indexIcbJidEEEiv
FNDA:0,_ZN3emp16has_unique_typesINSt7__cxx1112basic_stringIcSt11char_traitsIcESaIcEEEbJcEEEbv
FNDA:1212,_ZN3emp3minIiEERKT_S3_S3_S3_
FNDA:1,_ZN3emp21has_unique_first_typeIbcJEEEbv
FNDA:2,_ZN3emp21has_unique_first_typeIibJNSt7__cxx1112basic_stringIcSt11char_traitsIcESaIcEEEbcEEEbv
FNDA:1,_ZN3emp14get_type_indexIddJEEEiv
FNDA:1,_ZN3emp14get_type_indexIdiJdEEEiv
FNDA:1,_ZN3emp16has_unique_typesIbiJNSt7__cxx1112basic_stringIcSt11char_traitsIcESaIcEEESt6vectorIbSaIbEEcEEEbv
FNDA:1,_ZN3emp10ApplyTupleIPFviicERSt5tupleIJiicEEEEvT_OT0_
FNDA:1,_ZN3emp16has_unique_typesIbNSt7__cxx1112basic_stringIcSt11char_traitsIcESaIcEEEJbcEEEbv
FNDA:1,_ZN3emp14get_type_indexIibJidEEEiv
FNDA:1,_ZN3emp6toggleERb
FNDA:0,_ZN3emp8time_funESt8functionIFvvEE
FNDA:1,_ZN3emp21has_unique_first_typeINSt7__cxx1112basic_stringIcSt11char_traitsIcESaIcEEEEEbv
FNDA:1,_ZN3emp14get_type_indexINSt7__cxx1112basic_stringIcSt11char_traitsIcESaIcEEEEEiv
FNDA:0,_ZN3emp21has_unique_first_typeINSt7__cxx1112basic_stringIcSt11char_traitsIcESaIcEEEbJcEEEbv
FNDA:1,_ZN3emp21has_unique_first_typeINSt7__cxx1112basic_stringIcSt11char_traitsIcESaIcEEESt6vectorIbSaIbEEJcEEEbv
FNDA:1,_ZN3emp8internal10apply_implIPFviicERSt5tupleIJiicEELb1ELi3EJLi0ELi1ELi2EEE5applyES3_S6_
FNDA:0,_ZN3emp14get_type_indexIcEEiv
FNDA:1,_ZN3emp16has_unique_typesISt6vectorIbSaIbEEcJEEEbv
FNDA:1,_ZN3emp21has_unique_first_typeISt6vectorIbSaIbEEcJEEEbv
FNDA:1,_ZN3emp14get_type_indexIiiJdEEEiv
FNDA:0,_ZN3emp14get_type_indexIciJdEEEiv
FNDA:0,_ZN3emp16has_unique_typesIbcJEEEbv
FNDA:0,_ZN3emp14get_type_indexIdEEiv
FNDA:1,_ZN3emp21has_unique_first_typeIbNSt7__cxx1112basic_stringIcSt11char_traitsIcESaIcEEEJSt6vectorIbSaIbEEcEEEbv
FNDA:0,_ZN3emp14get_type_indexIidJEEEiv
FNF:63
FNH:52
DA:25,0
DA:26,0
DA:27,0
DA:28,0
DA:29,0
DA:33,1
DA:36,4
DA:37,4
DA:41,3
DA:42,3
DA:43,3
DA:45,3
DA:46,4
DA:47,7
DA:48,7
DA:49,4
DA:55,10
DA:56,10
DA:59,1212
DA:60,1212
DA:83,1
DA:84,1
DA:85,1
DA:86,1
DA:87,21
DA:88,20
DA:90,1
DA:112,1
DA:116,1
DA:119,12
DA:120,12
DA:127,6
DA:128,1
DA:131,23
DA:132,23
DA:136,6
DA:137,6
DA:138,6
DA:149,3
DA:150,3
DA:151,3
DA:156,1
DA:157,1
DA:158,1
DA:164,1
DA:166,1
DA:167,1
LF:47
LH:42
end_of_record
TN:
SF:/home/jgf/git/Empirical/tools/graph_utils.h
FN:22,_ZN3emp16build_graph_ringEiRNS_6RandomE
FN:40,_ZN3emp16build_graph_treeEiRNS_6RandomE
FN:56,_ZN3emp18build_graph_randomEiiRNS_6RandomEb
FN:89,_ZN3emp16build_graph_gridEiiRNS_6RandomEd
FN:117,_ZN3emp22build_graph_clique_setEiiRNS_6RandomEd
FN:158,_ZN3emp14load_graph_symERSib
FN:173,_ZN3emp14load_graph_symENSt7__cxx1112basic_stringIcSt11char_traitsIcESaIcEEEb
FN:179,_ZN3emp16load_graph_tableERSi
FN:195,_ZN3emp16load_graph_tableENSt7__cxx1112basic_stringIcSt11char_traitsIcESaIcEEE
FNDA:0,_ZN3emp14load_graph_symENSt7__cxx1112basic_stringIcSt11char_traitsIcESaIcEEEb
FNDA:0,_ZN3emp22build_graph_clique_setEiiRNS_6RandomEd
FNDA:1,_ZN3emp16build_graph_gridEiiRNS_6RandomEd
FNDA:0,_ZN3emp16build_graph_ringEiRNS_6RandomE
FNDA:0,_ZN3emp14load_graph_symERSib
FNDA:0,_ZN3emp16build_graph_treeEiRNS_6RandomE
FNDA:0,_ZN3emp16load_graph_tableERSi
FNDA:0,_ZN3emp16load_graph_tableENSt7__cxx1112basic_stringIcSt11char_traitsIcESaIcEEE
FNDA:0,_ZN3emp18build_graph_randomEiiRNS_6RandomEb
FNF:9
FNH:1
DA:22,0
DA:23,0
DA:24,0
DA:26,0
DA:27,0
DA:29,0
DA:30,0
DA:31,0
DA:32,0
DA:35,0
DA:37,0
DA:40,0
DA:41,0
DA:42,0
DA:44,0
DA:45,0
DA:47,0
DA:48,0
DA:49,0
DA:50,0
DA:53,0
DA:56,0
DA:58,0
DA:61,0
DA:62,0
DA:64,0
DA:65,0
DA:68,0
DA:69,0
DA:70,0
DA:71,0
DA:76,0
DA:77,0
DA:78,0
DA:80,0
DA:82,0
DA:83,0
DA:86,0
DA:89,1
DA:90,1
DA:92,1
DA:95,1
DA:97,2
DA:98,1
DA:100,6
DA:101,25
DA:102,20
DA:103,20
DA:104,16
DA:106,20
DA:107,15
DA:112,2
DA:117,0
DA:119,0
DA:121,0
DA:122,0
DA:124,0
DA:125,0
DA:128,0
DA:129,0
DA:130,0
DA:131,0
DA:132,0
DA:138,0
DA:139,0
DA:140,0
DA:141,0
DA:142,0
DA:143,0
DA:144,0
DA:145,0
DA:151,0
DA:158,0
DA:160,0
DA:162,0
DA:164,0
DA:165,0
DA:166,0
DA:167,0
DA:170,0
DA:173,0
DA:174,0
DA:175,0
DA:179,0
DA:181,0
DA:183,0
DA:185,0
DA:186,0
DA:187,0
DA:188,0
DA:192,0
DA:195,0
DA:196,0
DA:197,0
LF:94
LH:14
end_of_record
TN:
SF:/home/jgf/git/Empirical/tools/mem_track.h
FN:53,_ZN3emp8internalL15TrackMem_GetMapEv
FN:59,_ZN3emp8internalL15TrackMem_StatusEv
FN:69,_ZN3emp8internalL12TrackMem_IncERKNSt7__cxx1112basic_stringIcSt11char_traitsIcESaIcEEE
FN:78,_ZN3emp8internalL12TrackMem_DecERKNSt7__cxx1112basic_stringIcSt11char_traitsIcESaIcEEE
FN:95,_ZN3emp8internalL14TrackMem_CountERKNSt7__cxx1112basic_stringIcSt11char_traitsIcESaIcEEE
FNDA:3,_ZN3emp8internalL14TrackMem_CountERKNSt7__cxx1112basic_stringIcSt11char_traitsIcESaIcEEE
FNDA:0,_ZN3emp8internalL15TrackMem_StatusEv
FNDA:1003,_ZN3emp8internalL12TrackMem_IncERKNSt7__cxx1112basic_stringIcSt11char_traitsIcESaIcEEE
FNDA:1508,_ZN3emp8internalL15TrackMem_GetMapEv
FNDA:502,_ZN3emp8internalL12TrackMem_DecERKNSt7__cxx1112basic_stringIcSt11char_traitsIcESaIcEEE
FNF:5
FNH:4
DA:53,1508
DA:55,1508
DA:56,1508
DA:59,0
DA:60,0
DA:62,0
DA:63,0
DA:64,0
DA:66,0
DA:69,1003
DA:71,1003
DA:72,1003
DA:73,3
DA:75,1003
DA:76,1003
DA:78,502
DA:80,502
DA:83,502
DA:84,0
DA:85,0
DA:86,0
DA:88,502
DA:89,502
DA:90,0
DA:91,0
DA:93,502
DA:95,3
DA:97,3
DA:99,3
DA:100,1
DA:102,2
LF:31
LH:20
end_of_record
TN:
SF:/home/jgf/git/Empirical/tools/random_utils.h
FN:11,_ZN3emp7shuffleIiEEvRSt6vectorIT_SaIS2_EERNS_6RandomE
FNDA:1,_ZN3emp7shuffleIiEEvRSt6vectorIT_SaIS2_EERNS_6RandomE
FNF:1
FNH:1
DA:11,1
DA:12,20
DA:13,19
DA:14,19
DA:15,19
DA:17,1
LF:6
LH:6
end_of_record
TN:
SF:/home/jgf/git/Empirical/tools/sequence_utils.h
FN:17,_ZN3emp21calc_hamming_distanceINSt7__cxx1112basic_stringIcSt11char_traitsIcESaIcEEEEEiRKT_S9_i
FN:40,_ZN3emp18calc_edit_distanceINSt7__cxx1112basic_stringIcSt11char_traitsIcESaIcEEEEEiRKT_S9_
FN:83,_ZN3emp5alignINSt7__cxx1112basic_stringIcSt11char_traitsIcESaIcEEEcEEiRT_S8_T0_
FN:83,_ZN3emp5alignISt6vectorIiSaIiEEiEEiRT_S5_T0_
FNDA:1,_ZN3emp5alignINSt7__cxx1112basic_stringIcSt11char_traitsIcESaIcEEEcEEiRT_S8_T0_
FNDA:1,_ZN3emp5alignISt6vectorIiSaIiEEiEEiRT_S5_T0_
FNDA:1,_ZN3emp21calc_hamming_distanceINSt7__cxx1112basic_stringIcSt11char_traitsIcESaIcEEEEEiRKT_S9_i
FNDA:1,_ZN3emp18calc_edit_distanceINSt7__cxx1112basic_stringIcSt11char_traitsIcESaIcEEEEEiRKT_S9_
FNF:4
FNH:4
DA:17,1
DA:18,1
DA:20,1
DA:21,1
DA:24,1
DA:27,1
DA:30,31
DA:31,30
DA:34,1
DA:40,1
DA:41,1
DA:42,1
DA:45,1
DA:46,1
DA:48,2
DA:49,2
DA:52,1
DA:55,32
DA:57,31
DA:58,30
DA:61,930
DA:63,899
DA:68,801
DA:73,31
DA:77,1
DA:83,2
DA:84,2
DA:85,2
DA:88,2
DA:89,2
DA:91,4
DA:92,4
DA:93,4
DA:96,27
DA:97,25
DA:98,25
DA:102,33
DA:104,31
DA:105,29
DA:108,461
DA:110,430
DA:115,411
DA:116,411
DA:117,411
DA:118,411
DA:123,31
DA:128,2
DA:129,2
DA:130,2
DA:132,72
DA:133,35
DA:134,35
DA:136,35
DA:137,35
DA:138,21
DA:139,10
DA:140,4
DA:144,2
DA:145,2
DA:147,4
DA:148,4
DA:150,2
DA:152,72
DA:153,35
DA:154,21
DA:155,10
DA:156,4
DA:158,35
DA:160,2
DA:161,2
DA:163,2
DA:164,2
DA:167,2
LF:73
LH:73
end_of_record
TN:
SF:/home/jgf/git/Empirical/tools/serialize.h
FN:65,_ZN3emp9serialize7DataPod9ClearDataEv
FN:70,_ZN3emp9serialize7DataPodC2ERSoRSi
FN:72,_ZN3emp9serialize7DataPodC2ERSd
FN:89,_ZN3emp9serialize7DataPodD2Ev
FN:91,_ZN3emp9serialize7DataPod7OStreamEv
FN:92,_ZN3emp9serialize7DataPod7IStreamEv
FN:103,_ZN3emp9serialize8StoreVarI13SerializeTestEERNT_20emp_load_return_typeERNS0_7DataPodERKS3_b
FN:103,_ZN3emp9serialize8StoreVarI15SerializeTest_DEERNT_20emp_load_return_typeERNS0_7DataPodERKS3_b
FN:103,_ZN3emp9serialize8StoreVarI9MultiTestEERNT_20emp_load_return_typeERNS0_7DataPodERKS3_b
FN:110,_ZN3emp9serialize8StoreVarIiEEvRNS0_7DataPodERKSt6vectorIT_SaIS5_EEb
FN:123,_ZN3emp9serialize8StoreVarIbEEvRNS0_7DataPodERKT_i
FN:123,_ZN3emp9serialize8StoreVarIcEEvRNS0_7DataPodERKT_i
FN:123,_ZN3emp9serialize8StoreVarIdEEvRNS0_7DataPodERKT_i
FN:123,_ZN3emp9serialize8StoreVarINSt7__cxx1112basic_stringIcSt11char_traitsIcESaIcEEEEEvRNS0_7DataPodERKT_i
FN:123,_ZN3emp9serialize8StoreVarImEEvRNS0_7DataPodERKT_i
FN:123,_ZN3emp9serialize8StoreVarIiEEvRNS0_7DataPodERKT_i
FN:137,_ZN3emp9serialize9SetupLoadI15SerializeTest_DEERNT_20emp_load_return_typeERNS0_7DataPodEPS3_b
FN:137,_ZN3emp9serialize9SetupLoadI9MultiTestEERNT_20emp_load_return_typeERNS0_7DataPodEPS3_b
FN:137,_ZN3emp9serialize9SetupLoadI13SerializeTestEERNT_20emp_load_return_typeERNS0_7DataPodEPS3_b
FN:143,_ZN3emp9serialize9SetupLoadIbEET_RNS0_7DataPodEPKS2_i
FN:143,_ZN3emp9serialize9SetupLoadIcEET_RNS0_7DataPodEPKS2_i
FN:143,_ZN3emp9serialize9SetupLoadIdEET_RNS0_7DataPodEPKS2_i
FN:143,_ZN3emp9serialize9SetupLoadIiEET_RNS0_7DataPodEPKS2_i
FN:143,_ZN3emp9serialize9SetupLoadIjEET_RNS0_7DataPodEPKS2_i
FN:153,_ZN3emp9serialize9SetupLoadERNS0_7DataPodEPNSt7__cxx1112basic_stringIcSt11char_traitsIcESaIcEEEb
FN:162,_ZN3emp9serialize9SetupLoadIiEESt6vectorIT_SaIS3_EERNS0_7DataPodEPS5_b
FN:186,_ZN3emp9serialize8internal11serial_implIJK15SerializeTest_DK9MultiTestEE5StoreERNS0_7DataPodERS4_RS6_
FN:186,_ZN3emp9serialize8internal11serial_implIJKbEE5StoreERNS0_7DataPodERS3_
FN:186,_ZN3emp9serialize8internal11serial_implIJK13SerializeTestKNSt7__cxx1112basic_stringIcSt11char_traitsIcESaIcEEEK15SerializeTest_DK9MultiTestEE5StoreERNS0_7DataPodERS4_RSB_RSD_RSF_
FN:186,_ZN3emp9serialize8internal11serial_implIJKcEE5StoreERNS0_7DataPodERS3_
FN:186,_ZN3emp9serialize8internal11serial_implIJKSt6vectorIiSaIiEEEE5StoreERNS0_7DataPodERS6_
FN:186,_ZN3emp9serialize8internal11serial_implIJK9MultiTestEE5StoreERNS0_7DataPodERS4_
FN:186,_ZN3emp9serialize8internal11serial_implIJKiKNSt7__cxx1112basic_stringIcSt11char_traitsIcESaIcEEEEE5StoreERNS0_7DataPodERS3_RSA_
FN:186,_ZN3emp9serialize8internal11serial_implIJKdEE5StoreERNS0_7DataPodERS3_
FN:186,_ZN3emp9serialize8internal11serial_implIJKNSt7__cxx1112basic_stringIcSt11char_traitsIcESaIcEEEK15SerializeTest_DK9MultiTestEE5StoreERNS0_7DataPodERS9_RSB_RSD_
FN:186,_ZN3emp9serialize8internal11serial_implIJKNSt7__cxx1112basic_stringIcSt11char_traitsIcESaIcEEEEE5StoreERNS0_7DataPodERS9_
FN:186,_ZN3emp9serialize8internal11serial_implIJKiKSt6vectorIiSaIiEEEE5StoreERNS0_7DataPodERS3_RS7_
FN:194,_ZN3emp9serialize8internal11serial_implIJEE5StoreERNS0_7DataPodE
FN:199,_ZN3emp9serialize5StoreIJKdEEEvRNS0_7DataPodEDpRT_
FN:199,_ZN3emp9serialize5StoreIJKiKSt6vectorIiSaIiEEEEEvRNS0_7DataPodEDpRT_
FN:199,_ZN3emp9serialize5StoreIJKbEEEvRNS0_7DataPodEDpRT_
FN:199,_ZN3emp9serialize5StoreIJKiKNSt7__cxx1112basic_stringIcSt11char_traitsIcESaIcEEEEEEvRNS0_7DataPodEDpRT_
FN:199,_ZN3emp9serialize5StoreIJK13SerializeTestKNSt7__cxx1112basic_stringIcSt11char_traitsIcESaIcEEEK15SerializeTest_DK9MultiTestEEEvRNS0_7DataPodEDpRT_
FN:199,_ZN3emp9serialize5StoreIJKcEEEvRNS0_7DataPodEDpRT_
FNDA:1,_ZN3emp9serialize8StoreVarI15SerializeTest_DEERNT_20emp_load_return_typeERNS0_7DataPodERKS3_b
FNDA:1,_ZN3emp9serialize8internal11serial_implIJK13SerializeTestKNSt7__cxx1112basic_stringIcSt11char_traitsIcESaIcEEEK15SerializeTest_DK9MultiTestEE5StoreERNS0_7DataPodERS4_RSB_RSD_RSF_
FNDA:2,_ZN3emp9serialize8internal11serial_implIJKcEE5StoreERNS0_7DataPodERS3_
FNDA:186,_ZN3emp9serialize7DataPod7IStreamEv
FNDA:2,_ZN3emp9serialize8internal11serial_implIJKbEE5StoreERNS0_7DataPodERS3_
FNDA:2,_ZN3emp9serialize8StoreVarIbEEvRNS0_7DataPodERKT_i
FNDA:2,_ZN3emp9serialize5StoreIJKdEEEvRNS0_7DataPodEDpRT_
FNDA:1,_ZN3emp9serialize9SetupLoadI13SerializeTestEERNT_20emp_load_return_typeERNS0_7DataPodEPS3_b
FNDA:1,_ZN3emp9serialize8StoreVarI13SerializeTestEERNT_20emp_load_return_typeERNS0_7DataPodERKS3_b
FNDA:2,_ZN3emp9serialize9SetupLoadIbEET_RNS0_7DataPodEPKS2_i
FNDA:1,_ZN3emp9serialize9SetupLoadI9MultiTestEERNT_20emp_load_return_typeERNS0_7DataPodEPS3_b
FNDA:1,_ZN3emp9serialize8internal11serial_implIJK15SerializeTest_DK9MultiTestEE5StoreERNS0_7DataPodERS4_RS6_
FNDA:1,_ZN3emp9serialize9SetupLoadI15SerializeTest_DEERNT_20emp_load_return_typeERNS0_7DataPodEPS3_b
FNDA:2,_ZN3emp9serialize5StoreIJKbEEEvRNS0_7DataPodEDpRT_
FNDA:2,_ZN3emp9serialize8StoreVarIcEEvRNS0_7DataPodERKT_i
FNDA:14,_ZN3emp9serialize8internal11serial_implIJEE5StoreERNS0_7DataPodE
FNDA:2,_ZN3emp9serialize9SetupLoadIcEET_RNS0_7DataPodEPKS2_i
FNDA:7,_ZN3emp9serialize9SetupLoadERNS0_7DataPodEPNSt7__cxx1112basic_stringIcSt11char_traitsIcESaIcEEEb
FNDA:1,_ZN3emp9serialize8StoreVarI9MultiTestEERNT_20emp_load_return_typeERNS0_7DataPodERKS3_b
FNDA:1,_ZN3emp9serialize5StoreIJKiKSt6vectorIiSaIiEEEEEvRNS0_7DataPodEDpRT_
FNDA:1,_ZN3emp9serialize8internal11serial_implIJKSt6vectorIiSaIiEEEE5StoreERNS0_7DataPodERS6_
FNDA:1,_ZN3emp9serialize9SetupLoadIjEET_RNS0_7DataPodEPKS2_i
FNDA:1,_ZN3emp9serialize7DataPodC2ERSd
FNDA:50,_ZN3emp9serialize8StoreVarIiEEvRNS0_7DataPodERKT_i
FNDA:50,_ZN3emp9serialize9SetupLoadIiEET_RNS0_7DataPodEPKS2_i
FNDA:2,_ZN3emp9serialize8internal11serial_implIJKdEE5StoreERNS0_7DataPodERS3_
FNDA:1,_ZN3emp9serialize7DataPodC2ERSoRSi
FNDA:1,_ZN3emp9serialize9SetupLoadIiEESt6vectorIT_SaIS3_EERNS0_7DataPodEPS5_b
FNDA:1,_ZN3emp9serialize8StoreVarIiEEvRNS0_7DataPodERKSt6vectorIT_SaIS5_EEb
FNDA:7,_ZN3emp9serialize8StoreVarINSt7__cxx1112basic_stringIcSt11char_traitsIcESaIcEEEEEvRNS0_7DataPodERKT_i
FNDA:1,_ZN3emp9serialize8StoreVarImEEvRNS0_7DataPodERKT_i
FNDA:2,_ZN3emp9serialize8StoreVarIdEEvRNS0_7DataPodERKT_i
FNDA:6,_ZN3emp9serialize8internal11serial_implIJKiKNSt7__cxx1112basic_stringIcSt11char_traitsIcESaIcEEEEE5StoreERNS0_7DataPodERS3_RSA_
FNDA:2,_ZN3emp9serialize9SetupLoadIdEET_RNS0_7DataPodEPKS2_i
FNDA:1,_ZN3emp9serialize8internal11serial_implIJK9MultiTestEE5StoreERNS0_7DataPodERS4_
FNDA:6,_ZN3emp9serialize5StoreIJKiKNSt7__cxx1112basic_stringIcSt11char_traitsIcESaIcEEEEEEvRNS0_7DataPodEDpRT_
FNDA:2,_ZN3emp9serialize5StoreIJKcEEEvRNS0_7DataPodEDpRT_
FNDA:1,_ZN3emp9serialize8internal11serial_implIJKiKSt6vectorIiSaIiEEEE5StoreERNS0_7DataPodERS3_RS7_
FNDA:130,_ZN3emp9serialize7DataPod7OStreamEv
FNDA:1,_ZN3emp9serialize5StoreIJK13SerializeTestKNSt7__cxx1112basic_stringIcSt11char_traitsIcESaIcEEEK15SerializeTest_DK9MultiTestEEEvRNS0_7DataPodEDpRT_
FNDA:1,_ZN3emp9serialize7DataPod9ClearDataEv
FNDA:6,_ZN3emp9serialize8internal11serial_implIJKNSt7__cxx1112basic_stringIcSt11char_traitsIcESaIcEEEEE5StoreERNS0_7DataPodERS9_
FNDA:1,_ZN3emp9serialize7DataPodD2Ev
FNDA:1,_ZN3emp9serialize8internal11serial_implIJKNSt7__cxx1112basic_stringIcSt11char_traitsIcESaIcEEEK15SerializeTest_DK9MultiTestEE5StoreERNS0_7DataPodERS9_RSB_RSD_
FNF:44
FNH:44
DA:65,1
DA:66,1
DA:67,1
DA:68,1
DA:70,1
DA:71,1
DA:72,1
DA:89,1
DA:91,130
DA:92,186
DA:103,3
DA:104,3
DA:105,3
DA:110,1
DA:111,1
DA:112,44
DA:113,43
DA:117,1
DA:118,1
DA:119,1
DA:123,64
DA:125,64
DA:126,64
DA:127,64
DA:137,3
DA:138,3
DA:143,57
DA:146,57
DA:147,57
DA:148,57
DA:149,57
DA:153,7
DA:154,7
DA:155,7
DA:156,7
DA:157,7
DA:162,1
DA:163,1
DA:164,1
DA:167,44
DA:168,43
DA:170,1
DA:171,1
DA:186,24
DA:187,24
DA:188,24
DA:189,24
DA:194,14
DA:199,14
DA:200,14
DA:201,14
LF:51
LH:51
end_of_record
TN:
SF:/home/jgf/git/Empirical/tools/string_utils.h
FN:18,_ZN3emp17to_escaped_stringB5cxx11Ec
FN:49,_ZN3emp17to_escaped_stringERKNSt7__cxx1112basic_stringIcSt11char_traitsIcESaIcEEE
FN:58,_ZN3emp10to_literalIdEENSt7__cxx1112basic_stringIcSt11char_traitsIcESaIcEEERKT_
FN:58,_ZN3emp10to_literalIiEENSt7__cxx1112basic_stringIcSt11char_traitsIcESaIcEEERKT_
FN:61,_ZN3emp10to_literalB5cxx11Ec
FN:66,_ZN3emp10to_literalERKNSt7__cxx1112basic_stringIcSt11char_traitsIcESaIcEEE
FN:79,_ZN3emp16to_roman_numeralEiRKNSt7__cxx1112basic_stringIcSt11char_traitsIcESaIcEEE
FN:103,_ZN3emp13is_whitespaceEc
FN:107,_ZN3emp15is_upper_letterEc
FN:111,_ZN3emp15is_lower_letterEc
FN:115,_ZN3emp9is_letterEc
FN:119,_ZN3emp8is_digitEc
FN:123,_ZN3emp15is_alphanumericEc
FN:127,_ZN3emp9is_one_ofEcRKNSt7__cxx1112basic_stringIcSt11char_traitsIcESaIcEEE
FN:132,_ZN3emp14is_composed_ofERKNSt7__cxx1112basic_stringIcSt11char_traitsIcESaIcEEES7_
FN:139,_ZN3emp8is_validEc
FN:156,_ZN3emp16string_pop_fixedERNSt7__cxx1112basic_stringIcSt11char_traitsIcESaIcEEEmi
FN:172,_ZN3emp16string_get_rangeERKNSt7__cxx1112basic_stringIcSt11char_traitsIcESaIcEEEmm
FN:179,_ZN3emp10string_popERNSt7__cxx1112basic_stringIcSt11char_traitsIcESaIcEEEc
FN:183,_ZN3emp10string_getERKNSt7__cxx1112basic_stringIcSt11char_traitsIcESaIcEEEci
FN:187,_ZN3emp10string_popERNSt7__cxx1112basic_stringIcSt11char_traitsIcESaIcEEERKS5_
FN:191,_ZN3emp10string_getERKNSt7__cxx1112basic_stringIcSt11char_traitsIcESaIcEEES7_i
FN:195,_ZN3emp15string_pop_wordERNSt7__cxx1112basic_stringIcSt11char_traitsIcESaIcEEE
FN:200,_ZN3emp15string_get_wordERKNSt7__cxx1112basic_stringIcSt11char_traitsIcESaIcEEEi
FN:205,_ZN3emp15string_pop_lineERNSt7__cxx1112basic_stringIcSt11char_traitsIcESaIcEEE
FN:209,_ZN3emp15string_get_lineERKNSt7__cxx1112basic_stringIcSt11char_traitsIcESaIcEEEi
FN:214,_ZN3emp12left_justifyERNSt7__cxx1112basic_stringIcSt11char_traitsIcESaIcEEE
FN:218,_ZN3emp13right_justifyERNSt7__cxx1112basic_stringIcSt11char_traitsIcESaIcEEE
FN:223,_ZN3emp19compress_whitespaceERNSt7__cxx1112basic_stringIcSt11char_traitsIcESaIcEEE
FN:243,_ZN3emp17remove_whitespaceERNSt7__cxx1112basic_stringIcSt11char_traitsIcESaIcEEE
FN:256,_ZN3emp12slice_stringERKNSt7__cxx1112basic_stringIcSt11char_traitsIcESaIcEEERSt6vectorIS5_SaIS5_EEc
FN:290,_ZN3emp8internal14append_sstreamERNSt7__cxx1118basic_stringstreamIcSt11char_traitsIcESaIcEEE
FN:293,_ZN3emp8internal14append_sstreamIbJciEEEvRNSt7__cxx1118basic_stringstreamIcSt11char_traitsIcESaIcEEET_DpT0_
FN:293,_ZN3emp8internal14append_sstreamIiJEEEvRNSt7__cxx1118basic_stringstreamIcSt11char_traitsIcESaIcEEET_DpT0_
FN:293,_ZN3emp8internal14append_sstreamIPKcJmEEEvRNSt7__cxx1118basic_stringstreamIcSt11char_traitsIcESaIcEEET_DpT0_
FN:293,_ZN3emp8internal14append_sstreamImJEEEvRNSt7__cxx1118basic_stringstreamIcSt11char_traitsIcESaIcEEET_DpT0_
FN:293,_ZN3emp8internal14append_sstreamINSt7__cxx1112basic_stringIcSt11char_traitsIcESaIcEEEJbciEEEvRNS2_18basic_stringstreamIcS5_S6_EET_DpT0_
FN:293,_ZN3emp8internal14append_sstreamIPKcJNSt7__cxx1112basic_stringIcSt11char_traitsIcESaIcEEES3_mEEEvRNS4_18basic_stringstreamIcS7_S8_EET_DpT0_
FN:293,_ZN3emp8internal14append_sstreamINSt7__cxx1112basic_stringIcSt11char_traitsIcESaIcEEEJPKcmEEEvRNS2_18basic_stringstreamIcS5_S6_EET_DpT0_
FN:293,_ZN3emp8internal14append_sstreamINSt7__cxx1112basic_stringIcSt11char_traitsIcESaIcEEEJEEEvRNS2_18basic_stringstreamIcS5_S6_EET_DpT0_
FN:293,_ZN3emp8internal14append_sstreamIcJiEEEvRNSt7__cxx1118basic_stringstreamIcSt11char_traitsIcESaIcEEET_DpT0_
FN:293,_ZN3emp8internal14append_sstreamIPKcJNSt7__cxx1112basic_stringIcSt11char_traitsIcESaIcEEEEEEvRNS4_18basic_stringstreamIcS7_S8_EET_DpT0_
FN:300,_ZN3emp8internal14to_string_implIJNSt7__cxx1112basic_stringIcSt11char_traitsIcESaIcEEEbciEEES7_iDpT_
FN:300,_ZN3emp8internal14to_string_implIJPKcNSt7__cxx1112basic_stringIcSt11char_traitsIcESaIcEEEEEES9_iDpT_
FN:300,_ZN3emp8internal14to_string_implIJPKcNSt7__cxx1112basic_stringIcSt11char_traitsIcESaIcEEES3_mEEES9_iDpT_
FN:320,_ZN3emp9to_stringIJPKcNSt7__cxx1112basic_stringIcSt11char_traitsIcESaIcEEES2_mEEES8_DpT_
FN:320,_ZN3emp9to_stringIJNSt7__cxx1112basic_stringIcSt11char_traitsIcESaIcEEEbciEEES6_DpT_
FN:320,_ZN3emp9to_stringIJPKcNSt7__cxx1112basic_stringIcSt11char_traitsIcESaIcEEEEEES8_DpT_
FNDA:0,_ZN3emp8is_validEc
FNDA:0,_ZN3emp15string_get_lineERKNSt7__cxx1112basic_stringIcSt11char_traitsIcESaIcEEEi
FNDA:50,_ZN3emp8is_digitEc
FNDA:1,_ZN3emp8internal14append_sstreamIcJiEEEvRNSt7__cxx1118basic_stringstreamIcSt11char_traitsIcESaIcEEET_DpT0_
FNDA:38,_ZN3emp17to_escaped_stringB5cxx11Ec
FNDA:0,_ZN3emp8internal14append_sstreamINSt7__cxx1112basic_stringIcSt11char_traitsIcESaIcEEEJEEEvRNS2_18basic_stringstreamIcS5_S6_EET_DpT0_
FNDA:1,_ZN3emp17to_escaped_stringERKNSt7__cxx1112basic_stringIcSt11char_traitsIcESaIcEEE
FNDA:1,_ZN3emp9to_stringIJNSt7__cxx1112basic_stringIcSt11char_traitsIcESaIcEEEbciEEES6_DpT_
FNDA:36,_ZN3emp15is_alphanumericEc
FNDA:0,_ZN3emp10string_getERKNSt7__cxx1112basic_stringIcSt11char_traitsIcESaIcEEEci
FNDA:1,_ZN3emp10to_literalIiEENSt7__cxx1112basic_stringIcSt11char_traitsIcESaIcEEERKT_
FNDA:0,_ZN3emp8internal14append_sstreamINSt7__cxx1112basic_stringIcSt11char_traitsIcESaIcEEEJPKcmEEEvRNS2_18basic_stringstreamIcS5_S6_EET_DpT0_
FNDA:1,_ZN3emp19compress_whitespaceERNSt7__cxx1112basic_stringIcSt11char_traitsIcESaIcEEE
FNDA:1,_ZN3emp12left_justifyERNSt7__cxx1112basic_stringIcSt11char_traitsIcESaIcEEE
FNDA:0,_ZN3emp9to_stringIJPKcNSt7__cxx1112basic_stringIcSt11char_traitsIcESaIcEEEEEES8_DpT_
FNDA:1,_ZN3emp13right_justifyERNSt7__cxx1112basic_stringIcSt11char_traitsIcESaIcEEE
FNDA:0,_ZN3emp8internal14append_sstreamIPKcJNSt7__cxx1112basic_stringIcSt11char_traitsIcESaIcEEEEEEvRNS4_18basic_stringstreamIcS7_S8_EET_DpT0_
FNDA:3,_ZN3emp10string_popERNSt7__cxx1112basic_stringIcSt11char_traitsIcESaIcEEERKS5_
FNDA:1,_ZN3emp15string_pop_lineERNSt7__cxx1112basic_stringIcSt11char_traitsIcESaIcEEE
FNDA:1,_ZN3emp17remove_whitespaceERNSt7__cxx1112basic_stringIcSt11char_traitsIcESaIcEEE
FNDA:96,_ZN3emp13is_whitespaceEc
FNDA:0,_ZN3emp10to_literalERKNSt7__cxx1112basic_stringIcSt11char_traitsIcESaIcEEE
FNDA:1,_ZN3emp12slice_stringERKNSt7__cxx1112basic_stringIcSt11char_traitsIcESaIcEEERSt6vectorIS5_SaIS5_EEc
FNDA:72,_ZN3emp9is_letterEc
FNDA:1,_ZN3emp15string_pop_wordERNSt7__cxx1112basic_stringIcSt11char_traitsIcESaIcEEE
FNDA:0,_ZN3emp8internal14append_sstreamIPKcJmEEEvRNSt7__cxx1118basic_stringstreamIcSt11char_traitsIcESaIcEEET_DpT0_
FNDA:1,_ZN3emp10to_literalIdEENSt7__cxx1112basic_stringIcSt11char_traitsIcESaIcEEERKT_
FNDA:1,_ZN3emp8internal14append_sstreamIiJEEEvRNSt7__cxx1118basic_stringstreamIcSt11char_traitsIcESaIcEEET_DpT0_
FNDA:0,_ZN3emp16to_roman_numeralEiRKNSt7__cxx1112basic_stringIcSt11char_traitsIcESaIcEEE
FNDA:1,_ZN3emp8internal14append_sstreamIbJciEEEvRNSt7__cxx1118basic_stringstreamIcSt11char_traitsIcESaIcEEET_DpT0_
FNDA:0,_ZN3emp14is_composed_ofERKNSt7__cxx1112basic_stringIcSt11char_traitsIcESaIcEEES7_
FNDA:1,_ZN3emp8internal14append_sstreamERNSt7__cxx1118basic_stringstreamIcSt11char_traitsIcESaIcEEE
FNDA:0,_ZN3emp8internal14to_string_implIJPKcNSt7__cxx1112basic_stringIcSt11char_traitsIcESaIcEEEEEES9_iDpT_
FNDA:2,_ZN3emp10string_popERNSt7__cxx1112basic_stringIcSt11char_traitsIcESaIcEEEc
FNDA:1,_ZN3emp8internal14to_string_implIJNSt7__cxx1112basic_stringIcSt11char_traitsIcESaIcEEEbciEEES7_iDpT_
FNDA:108,_ZN3emp15is_upper_letterEc
FNDA:1,_ZN3emp15string_get_wordERKNSt7__cxx1112basic_stringIcSt11char_traitsIcESaIcEEEi
FNDA:0,_ZN3emp8internal14append_sstreamIPKcJNSt7__cxx1112basic_stringIcSt11char_traitsIcESaIcEEES3_mEEEvRNS4_18basic_stringstreamIcS7_S8_EET_DpT0_
FNDA:0,_ZN3emp9to_stringIJPKcNSt7__cxx1112basic_stringIcSt11char_traitsIcESaIcEEES2_mEEES8_DpT_
FNDA:1,_ZN3emp8internal14append_sstreamINSt7__cxx1112basic_stringIcSt11char_traitsIcESaIcEEEJbciEEEvRNS2_18basic_stringstreamIcS5_S6_EET_DpT0_
FNDA:96,_ZN3emp15is_lower_letterEc
FNDA:1,_ZN3emp16string_get_rangeERKNSt7__cxx1112basic_stringIcSt11char_traitsIcESaIcEEEmm
FNDA:1,_ZN3emp10string_getERKNSt7__cxx1112basic_stringIcSt11char_traitsIcESaIcEEES7_i
FNDA:6,_ZN3emp16string_pop_fixedERNSt7__cxx1112basic_stringIcSt11char_traitsIcESaIcEEEmi
FNDA:0,_ZN3emp9is_one_ofEcRKNSt7__cxx1112basic_stringIcSt11char_traitsIcESaIcEEE
FNDA:0,_ZN3emp8internal14to_string_implIJPKcNSt7__cxx1112basic_stringIcSt11char_traitsIcESaIcEEES3_mEEES9_iDpT_
FNDA:0,_ZN3emp8internal14append_sstreamImJEEEvRNSt7__cxx1118basic_stringstreamIcSt11char_traitsIcESaIcEEET_DpT0_
FNDA:2,_ZN3emp10to_literalB5cxx11Ec
FNF:48
FNH:31
DA:18,38
DA:20,76
DA:21,38
DA:22,29
DA:23,29
DA:25,9
DA:27,0
DA:30,0
DA:33,2
DA:36,2
DA:39,0
DA:42,2
DA:45,3
DA:46,3
DA:49,1
DA:50,2
DA:51,1
DA:52,2
DA:58,2
DA:59,2
DA:61,2
DA:62,4
DA:63,2
DA:64,4
DA:66,0
DA:68,0
DA:69,0
DA:70,0
DA:71,0
DA:73,0
DA:74,0
DA:79,0
DA:80,0
DA:81,0
DA:82,0
DA:83,0
DA:84,0
DA:85,0
DA:86,0
DA:87,0
DA:88,0
DA:89,0
DA:90,0
DA:91,0
DA:92,0
DA:93,0
DA:94,0
DA:95,0
DA:98,0
DA:103,96
DA:104,96
DA:107,108
DA:108,108
DA:111,96
DA:112,96
DA:115,72
DA:116,72
DA:119,50
DA:120,50
DA:123,36
DA:124,36
DA:127,0
DA:128,0
DA:129,0
DA:132,0
DA:133,0
DA:134,0
DA:139,0
DA:156,6
DA:157,6
DA:158,6
DA:159,6
DA:160,0
DA:161,0
DA:164,6
DA:165,6
DA:168,6
DA:172,1
DA:174,1
DA:175,1
DA:179,2
DA:180,2
DA:183,0
DA:184,0
DA:187,3
DA:188,3
DA:191,1
DA:192,1
DA:195,1
DA:197,1
DA:200,1
DA:202,1
DA:205,1
DA:206,1
DA:209,0
DA:210,0
DA:214,1
DA:215,1
DA:218,4
DA:220,4
DA:221,1
DA:223,1
DA:224,1
DA:225,1
DA:226,1
DA:228,39
DA:229,38
DA:230,10
DA:231,5
DA:232,5
DA:235,28
DA:236,28
DA:240,1
DA:241,1
DA:243,1
DA:244,1
DA:245,1
DA:247,19
DA:248,18
DA:249,15
DA:252,1
DA:253,1
DA:256,1
DA:258,1
DA:261,1
DA:262,1
DA:263,11
DA:264,34
DA:265,5
DA:266,5
DA:270,1
DA:271,1
DA:272,1
DA:273,11
DA:274,5
DA:275,63
DA:276,29
DA:277,29
DA:279,5
DA:280,5
DA:283,1
DA:290,1
DA:293,4
DA:294,4
DA:295,4
DA:296,4
DA:300,1
DA:301,2
DA:302,1
DA:303,2
DA:320,1
DA:321,1
LF:152
LH:111
end_of_record
TN:
SF:/home/jgf/git/Empirical/tools/vector.h
FN:36,_ZN3emp6vectorIiEC2Ei
FN:40,_ZN3emp6vectorIiED2Ev
FN:54,_ZN3emp6vectorIiEixEi
FN:70,_ZN3emp6vectorIiE5beginEv
FN:71,_ZN3emp6vectorIiE3endEv
FNDA:1,_ZN3emp6vectorIiE3endEv
FNDA:1,_ZN3emp6vectorIiEC2Ei
FNDA:1,_ZN3emp6vectorIiE5beginEv
FNDA:20,_ZN3emp6vectorIiEixEi
FNDA:1,_ZN3emp6vectorIiED2Ev
FNF:5
FNH:5
DA:36,1
DA:40,1
DA:54,20
DA:55,20
DA:56,20
DA:70,1
DA:71,1
LF:7
LH:7
end_of_record
